Certificate:
    Data:
        Version: 3 (0x2)
        Serial Number:
            25:78:25:05:35
    Signature Algorithm: sha1WithRSAEncryption
        Issuer: C=US, ST=California, L=Dummy City, O=Dummy Organization, OU=Dummy Org Unit, CN=dummy.com/emailAddress=dummy@dummy.com
        Validity
            Not Before: Oct 25 00:00:00 2014 GMT
            Not After : Nov 27 05:52:48 2015 GMT
        Subject: C=CZ, L=Praha 4, O=AVAST Software a.s., CN=*.avast.com
        Subject Public Key Info:
            Public Key Algorithm: rsaEncryption
                Public-Key: (1024 bit)
                Modulus:
                    00:c0:dd:9e:bc:cc:1e:c3:14:c7:6b:89:e6:42:a3:
                    8b:50:5a:7f:77:6d:7e:3b:67:b0:c3:e2:dc:a9:42:
                    e3:38:b4:d7:60:3d:0b:64:34:6b:98:6b:29:cb:0e:
                    98:1c:bd:b6:dd:d1:fc:17:57:31:83:f2:03:f9:95:
                    a6:1e:e7:12:c2:d3:75:11:e2:f1:56:5a:48:d5:52:
                    c4:f7:79:1d:66:9a:94:ac:e6:6f:ea:9b:45:4c:0a:
                    d3:36:3e:1f:e8:42:b0:44:e2:36:a0:0a:1f:06:fb:
                    bb:f1:b0:9f:ee:e1:9d:e0:3d:19:97:6e:f9:3f:33:
                    ad:c9:9e:51:f7:bf:0f:3c:37
                Exponent: 65537 (0x10001)
        X509v3 extensions:
            X509v3 Subject Alternative Name: 
                DNS:*.avast.com, DNS:avast.com, DNS:ui.ff.avast.com, DNS:urlinfo.ff.avast.com, DNS:uib.ff.avast.com, DNS:ap.ff.avast.com
    Signature Algorithm: sha1WithRSAEncryption
         99:19:7d:c6:13:26:d6:38:65:f3:6b:68:6d:ff:62:b9:3f:1d:
         f5:b7:76:8a:e0:8a:33:a5:f2:e6:ea:a5:e3:fb:01:da:55:60:
         fd:6f:16:93:99:ca:8b:d0:b1:77:4b:29:9f:e3:f5:fc:28:81:
         30:42:48:e0:d6:de:4f:75:f6:1d:87:ed:28:89:dc:cd:90:d8:
         eb:09:d8:47:25:0c:97:c9:8d:ba:18:1a:c3:d4:3d:af:53:50:
         97:81:d7:dd:57:ad:cb:fa:90:f4:54:12:d6:af:53:9f:db:8c:
         d9:2c:d2:fe:dc:1d:e8:41:b6:3f:53:81:c9:e1:e2:be:64:8a:
         89:f2
-----BEGIN CERTIFICATE-----
MIIC3jCCAkegAwIBAgIFJXglBTUwDQYJKoZIhvcNAQEFBQAwgaExCzAJBgNVBAYT
AlVTMRMwEQYDVQQIEwpDYWxpZm9ybmlhMRMwEQYDVQQHEwpEdW1teSBDaXR5MRsw
GQYDVQQKExJEdW1teSBPcmdhbml6YXRpb24xFzAVBgNVBAsTDkR1bW15IE9yZyBV
bml0MRIwEAYDVQQDEwlkdW1teS5jb20xHjAcBgkqhkiG9w0BCQEWD2R1bW15QGR1
bW15LmNvbTAeFw0xNDEwMjUwMDAwMDBaFw0xNTExMjcwNTUyNDhaMFMxCzAJBgNV
BAYTAkNaMRAwDgYDVQQHEwdQcmFoYSA0MRwwGgYDVQQKExNBVkFTVCBTb2Z0d2Fy
ZSBhLnMuMRQwEgYDVQQDFAsqLmF2YXN0LmNvbTCBnzANBgkqhkiG9w0BAQEFAAOB
jQAwgYkCgYEAwN2evMwewxTHa4nmQqOLUFp/d21+O2eww+LcqULjOLTXYD0LZDRr
mGspyw6YHL223dH8F1cxg/ID+ZWmHucSwtN1EeLxVlpI1VLE93kdZpqUrOZv6ptF
TArTNj4f6EKwROI2oAofBvu78bCf7uGd4D0Zl275PzOtyZ5R978PPDcCAwEAAaNv
MG0wawYDVR0RBGQwYoILKi5hdmFzdC5jb22CCWF2YXN0LmNvbYIPdWkuZmYuYXZh
c3QuY29tghR1cmxpbmZvLmZmLmF2YXN0LmNvbYIQdWliLmZmLmF2YXN0LmNvbYIP
YXAuZmYuYXZhc3QuY29tMA0GCSqGSIb3DQEBBQUAA4GBAJkZfcYTJtY4ZfNraG3/
Yrk/HfW3dorgijOl8ubqpeP7AdpVYP1vFpOZyovQsXdLKZ/j9fwogTBCSODW3k91
9h2H7SiJ3M2Q2OsJ2EclDJfJjboYGsPUPa9TUJeB191Xrcv6kPRUEtavU5/bjNks
0v7cHehBtj9Tgcnh4r5kiony
-----END CERTIFICATE-----
