Certificate:
    Data:
        Version: 3 (0x2)
        Serial Number:
            20:56:04:72:23
    Signature Algorithm: sha1WithRSAEncryption
        Issuer: C=US, ST=California, L=Dummy City, O=Dummy Organization, OU=Dummy Org Unit, CN=dummy.com/emailAddress=dummy@dummy.com
        Validity
            Not Before: Oct 25 00:00:00 2014 GMT
            Not After : Nov 27 06:07:45 2015 GMT
        Subject: C=DE, ST=Berlin, L=Berlin, O=sociomantic labs GmbH, CN=*.sociomantic.com
        Subject Public Key Info:
            Public Key Algorithm: rsaEncryption
                Public-Key: (1024 bit)
                Modulus:
                    00:b2:73:11:1e:d6:36:60:f5:05:67:95:c0:46:48:
                    b1:0e:1b:e7:33:ae:07:8f:29:03:ba:a3:9e:f9:dd:
                    8a:57:d5:e8:6f:f5:8b:7b:f9:35:d6:17:0e:52:cd:
                    ed:cc:23:ed:19:27:ea:88:55:2b:25:39:25:ed:fc:
                    8d:60:b1:38:ad:c1:15:7c:a8:3a:42:08:8d:88:52:
                    11:4a:49:bd:dc:0d:00:2d:a2:91:70:73:6f:e9:7c:
                    e7:05:8c:b9:f8:b9:ac:0c:a1:39:6e:b0:af:de:d0:
                    33:20:3a:ee:4a:8a:8c:f7:60:26:9a:1b:ec:ed:9d:
                    44:a7:7c:b7:c7:c9:1b:17:15
                Exponent: 65537 (0x10001)
        X509v3 extensions:
            X509v3 Subject Alternative Name: 
                DNS:*.sociomantic.com
    Signature Algorithm: sha1WithRSAEncryption
         6b:12:91:02:0f:e3:eb:12:ad:26:ee:53:1a:c9:6d:60:ae:e9:
         1e:d2:ff:1f:d1:39:94:cc:e1:ec:c2:4c:4a:be:7e:9b:f5:ef:
         a4:07:e8:87:80:4d:4b:1d:0c:0c:2d:1e:47:7a:aa:1b:0f:2e:
         f9:02:57:f9:c8:eb:cd:89:8d:ca:7d:24:bb:b2:6f:89:63:7a:
         82:ca:69:ff:e6:05:b2:fb:a2:5e:08:dd:35:db:ef:97:81:c2:
         1d:43:55:0f:8a:10:9a:30:51:d0:7b:9a:70:01:21:35:f5:3c:
         7b:13:b2:c5:79:24:54:45:7d:91:c2:9b:09:7f:49:47:84:48:
         36:fd
-----BEGIN CERTIFICATE-----
MIICpzCCAhCgAwIBAgIFIFYEciMwDQYJKoZIhvcNAQEFBQAwgaExCzAJBgNVBAYT
AlVTMRMwEQYDVQQIEwpDYWxpZm9ybmlhMRMwEQYDVQQHEwpEdW1teSBDaXR5MRsw
GQYDVQQKExJEdW1teSBPcmdhbml6YXRpb24xFzAVBgNVBAsTDkR1bW15IE9yZyBV
bml0MRIwEAYDVQQDEwlkdW1teS5jb20xHjAcBgkqhkiG9w0BCQEWD2R1bW15QGR1
bW15LmNvbTAeFw0xNDEwMjUwMDAwMDBaFw0xNTExMjcwNjA3NDVaMGsxCzAJBgNV
BAYTAkRFMQ8wDQYDVQQIEwZCZXJsaW4xDzANBgNVBAcTBkJlcmxpbjEeMBwGA1UE
ChMVc29jaW9tYW50aWMgbGFicyBHbWJIMRowGAYDVQQDFBEqLnNvY2lvbWFudGlj
LmNvbTCBnzANBgkqhkiG9w0BAQEFAAOBjQAwgYkCgYEAsnMRHtY2YPUFZ5XARkix
DhvnM64HjykDuqOe+d2KV9Xob/WLe/k11hcOUs3tzCPtGSfqiFUrJTkl7fyNYLE4
rcEVfKg6QgiNiFIRSkm93A0ALaKRcHNv6XznBYy5+LmsDKE5brCv3tAzIDruSoqM
92Ammhvs7Z1Ep3y3x8kbFxUCAwEAAaMgMB4wHAYDVR0RBBUwE4IRKi5zb2Npb21h
bnRpYy5jb20wDQYJKoZIhvcNAQEFBQADgYEAaxKRAg/j6xKtJu5TGsltYK7pHtL/
H9E5lMzh7MJMSr5+m/XvpAfoh4BNSx0MDC0eR3qqGw8u+QJX+cjrzYmNyn0ku7Jv
iWN6gspp/+YFsvuiXgjdNdvvl4HCHUNVD4oQmjBR0HuacAEhNfU8exOyxXkkVEV9
kcKbCX9JR4RINv0=
-----END CERTIFICATE-----
