Certificate:
    Data:
        Version: 3 (0x2)
        Serial Number:
            04:15:64:74:53
    Signature Algorithm: sha1WithRSAEncryption
        Issuer: C=US, ST=California, L=Dummy City, O=Dummy Organization, OU=Dummy Org Unit, CN=dummy.com/emailAddress=dummy@dummy.com
        Validity
            Not Before: Oct 25 00:00:00 2014 GMT
            Not After : Nov 27 05:51:46 2015 GMT
        Subject: C=US, ST=California, L=Mountain View, O=Google Inc, CN=*.google-analytics.com
        Subject Public Key Info:
            Public Key Algorithm: rsaEncryption
                Public-Key: (1024 bit)
                Modulus:
                    00:9a:30:24:16:1e:28:4f:16:62:6b:2b:b0:c4:7c:
                    f2:c7:0c:ae:ad:50:cc:48:f8:fb:1f:4f:78:09:a7:
                    f7:ca:70:27:91:e2:03:e1:1e:0f:2d:c3:75:9d:42:
                    e7:09:5f:95:fb:08:20:bf:dd:dd:b5:d6:82:a2:39:
                    81:05:f8:0f:94:4b:d4:6a:74:f6:3b:89:e5:b0:c4:
                    f4:b6:8e:6f:d1:82:e0:af:ac:e3:1a:98:b3:98:60:
                    6c:53:f3:6c:ee:31:31:b3:8b:9d:b6:6f:bd:e4:06:
                    c6:0a:fa:c7:22:cb:84:5e:b7:92:76:45:2e:8f:00:
                    9f:7b:9d:3a:57:66:55:4e:37
                Exponent: 65537 (0x10001)
        X509v3 extensions:
            X509v3 Subject Alternative Name: 
                DNS:*.google-analytics.com, DNS:google-analytics.com, DNS:googletagmanager.com, DNS:service.urchin.com, DNS:ssl.google-analytics.com, DNS:urchin.com, DNS:www.google-analytics.com, DNS:www.googletagmanager.com
    Signature Algorithm: sha1WithRSAEncryption
         8a:9d:1a:65:18:f5:47:63:30:06:65:d1:18:cd:52:2a:31:84:
         ca:26:81:7c:03:8f:3d:68:c4:8a:20:97:77:43:d3:09:e3:3b:
         f9:f8:2e:e1:d0:46:a5:82:8a:a2:f9:b0:12:7a:7d:08:ef:f8:
         33:19:b4:10:5f:d2:02:8e:ae:d7:b0:95:cd:43:8c:42:46:4a:
         f6:d3:83:09:88:f4:f9:7d:4e:54:8c:8a:07:71:8d:d9:a1:a8:
         0b:9b:b2:6d:a4:1b:ae:d5:07:0a:ce:e7:ec:25:5b:40:71:1f:
         b5:99:96:14:bf:d9:7c:be:38:06:ac:dd:0b:88:3c:56:64:05:
         c8:25
-----BEGIN CERTIFICATE-----
MIIDUDCCArmgAwIBAgIFBBVkdFMwDQYJKoZIhvcNAQEFBQAwgaExCzAJBgNVBAYT
AlVTMRMwEQYDVQQIEwpDYWxpZm9ybmlhMRMwEQYDVQQHEwpEdW1teSBDaXR5MRsw
GQYDVQQKExJEdW1teSBPcmdhbml6YXRpb24xFzAVBgNVBAsTDkR1bW15IE9yZyBV
bml0MRIwEAYDVQQDEwlkdW1teS5jb20xHjAcBgkqhkiG9w0BCQEWD2R1bW15QGR1
bW15LmNvbTAeFw0xNDEwMjUwMDAwMDBaFw0xNTExMjcwNTUxNDZaMHAxCzAJBgNV
BAYTAlVTMRMwEQYDVQQIEwpDYWxpZm9ybmlhMRYwFAYDVQQHEw1Nb3VudGFpbiBW
aWV3MRMwEQYDVQQKEwpHb29nbGUgSW5jMR8wHQYDVQQDFBYqLmdvb2dsZS1hbmFs
eXRpY3MuY29tMIGfMA0GCSqGSIb3DQEBAQUAA4GNADCBiQKBgQCaMCQWHihPFmJr
K7DEfPLHDK6tUMxI+PsfT3gJp/fKcCeR4gPhHg8tw3WdQucJX5X7CCC/3d211oKi
OYEF+A+US9RqdPY7ieWwxPS2jm/RguCvrOMamLOYYGxT82zuMTGzi522b73kBsYK
+sciy4Ret5J2RS6PAJ97nTpXZlVONwIDAQABo4HDMIHAMIG9BgNVHREEgbUwgbKC
FiouZ29vZ2xlLWFuYWx5dGljcy5jb22CFGdvb2dsZS1hbmFseXRpY3MuY29tghRn
b29nbGV0YWdtYW5hZ2VyLmNvbYISc2VydmljZS51cmNoaW4uY29tghhzc2wuZ29v
Z2xlLWFuYWx5dGljcy5jb22CCnVyY2hpbi5jb22CGHd3dy5nb29nbGUtYW5hbHl0
aWNzLmNvbYIYd3d3Lmdvb2dsZXRhZ21hbmFnZXIuY29tMA0GCSqGSIb3DQEBBQUA
A4GBAIqdGmUY9UdjMAZl0RjNUioxhMomgXwDjz1oxIogl3dD0wnjO/n4LuHQRqWC
iqL5sBJ6fQjv+DMZtBBf0gKOrtewlc1DjEJGSvbTgwmI9Pl9TlSMigdxjdmhqAub
sm2kG67VBwrO5+wlW0BxH7WZlhS/2Xy+OAas3QuIPFZkBcgl
-----END CERTIFICATE-----
