Certificate:
    Data:
        Version: 3 (0x2)
        Serial Number:
            36:35:03:97:97
    Signature Algorithm: sha1WithRSAEncryption
        Issuer: C=US, ST=California, L=Dummy City, O=Dummy Organization, OU=Dummy Org Unit, CN=dummy.com/emailAddress=dummy@dummy.com
        Validity
            Not Before: Oct 25 00:00:00 2014 GMT
            Not After : Nov 27 05:52:37 2015 GMT
        Subject: C=AU, ST=Some-State, O=Internet Widgits Pty Ltd, CN=*.keyless.io
        Subject Public Key Info:
            Public Key Algorithm: rsaEncryption
                Public-Key: (1024 bit)
                Modulus:
                    00:be:72:ea:68:44:ef:88:23:e5:c7:ef:8d:78:ed:
                    f8:eb:da:25:66:59:1b:ab:95:18:74:9a:67:a4:51:
                    a5:10:5c:9a:eb:01:17:7b:d3:77:47:b7:54:af:7c:
                    51:6c:b7:6b:86:bb:d0:9e:74:ab:8b:18:ea:1c:6d:
                    10:cf:6b:af:77:58:ca:bd:6d:1d:3f:8c:75:1d:a8:
                    dd:f9:df:36:4d:6f:73:17:60:8d:38:15:1a:15:e0:
                    d9:ca:8a:93:3b:bc:7d:6f:7e:0c:9a:6b:3c:2f:17:
                    32:b2:fc:67:48:4b:96:07:72:32:10:35:62:00:99:
                    a8:2b:a2:9a:d6:63:96:07:39
                Exponent: 65537 (0x10001)
        X509v3 extensions:
            X509v3 Subject Alternative Name: 
                DNS:*.keyless.io, DNS:keyless.io
    Signature Algorithm: sha1WithRSAEncryption
         89:b5:06:47:45:3d:05:98:80:69:cc:25:e5:e2:16:5d:cd:b3:
         17:33:ab:fe:75:d7:36:e1:5a:51:12:bb:b1:4d:d3:53:f7:c5:
         9a:c7:12:d9:52:d2:91:6d:f4:07:d0:39:4e:7a:5e:6d:34:ae:
         69:59:f5:d0:b6:d8:22:af:e4:db:71:21:67:9c:bc:81:82:05:
         25:9b:e8:cd:81:43:22:ee:8c:e1:45:98:26:0c:35:5d:c8:4d:
         ad:42:5a:c6:aa:8f:46:dc:4e:86:54:4f:26:3c:33:7b:71:5e:
         ae:d1:be:1e:cc:50:bf:d8:27:55:3b:28:49:8a:99:01:d0:4e:
         0b:7c
-----BEGIN CERTIFICATE-----
MIICnzCCAgigAwIBAgIFNjUDl5cwDQYJKoZIhvcNAQEFBQAwgaExCzAJBgNVBAYT
AlVTMRMwEQYDVQQIEwpDYWxpZm9ybmlhMRMwEQYDVQQHEwpEdW1teSBDaXR5MRsw
GQYDVQQKExJEdW1teSBPcmdhbml6YXRpb24xFzAVBgNVBAsTDkR1bW15IE9yZyBV
bml0MRIwEAYDVQQDEwlkdW1teS5jb20xHjAcBgkqhkiG9w0BCQEWD2R1bW15QGR1
bW15LmNvbTAeFw0xNDEwMjUwMDAwMDBaFw0xNTExMjcwNTUyMzdaMFwxCzAJBgNV
BAYTAkFVMRMwEQYDVQQIEwpTb21lLVN0YXRlMSEwHwYDVQQKExhJbnRlcm5ldCBX
aWRnaXRzIFB0eSBMdGQxFTATBgNVBAMUDCoua2V5bGVzcy5pbzCBnzANBgkqhkiG
9w0BAQEFAAOBjQAwgYkCgYEAvnLqaETviCPlx++NeO3469olZlkbq5UYdJpnpFGl
EFya6wEXe9N3R7dUr3xRbLdrhrvQnnSrixjqHG0Qz2uvd1jKvW0dP4x1Hajd+d82
TW9zF2CNOBUaFeDZyoqTO7x9b34Mmms8LxcysvxnSEuWB3IyEDViAJmoK6Ka1mOW
BzkCAwEAAaMnMCUwIwYDVR0RBBwwGoIMKi5rZXlsZXNzLmlvggprZXlsZXNzLmlv
MA0GCSqGSIb3DQEBBQUAA4GBAIm1BkdFPQWYgGnMJeXiFl3Nsxczq/511zbhWlES
u7FN01P3xZrHEtlS0pFt9AfQOU56Xm00rmlZ9dC22CKv5NtxIWecvIGCBSWb6M2B
QyLujOFFmCYMNV3ITa1CWsaqj0bcToZUTyY8M3txXq7Rvh7MUL/YJ1U7KEmKmQHQ
Tgt8
-----END CERTIFICATE-----
