Certificate:
    Data:
        Version: 3 (0x2)
        Serial Number:
            07:61:89:16:30
    Signature Algorithm: sha1WithRSAEncryption
        Issuer: C=US, ST=California, L=Dummy City, O=Dummy Organization, OU=Dummy Org Unit, CN=dummy.com/emailAddress=dummy@dummy.com
        Validity
            Not Before: Oct 25 00:00:00 2014 GMT
            Not After : Nov 27 09:03:21 2015 GMT
        Subject: OU=Domain Control Validated, CN=*.travis-ci.org
        Subject Public Key Info:
            Public Key Algorithm: rsaEncryption
                Public-Key: (1024 bit)
                Modulus:
                    00:93:fe:e1:f7:ee:3a:f7:5a:68:46:c3:77:44:dd:
                    6b:5c:1c:b2:db:3e:02:3b:19:82:90:22:d6:b3:4a:
                    41:ff:e0:a9:1e:2f:e8:2b:d6:fd:28:4d:7e:b5:3d:
                    01:55:b9:ed:32:80:cb:75:b7:59:3d:a2:42:80:05:
                    84:f3:04:61:4e:21:9d:d4:05:fa:67:2f:14:f5:53:
                    6f:d5:42:e3:ff:df:54:88:e0:a2:4c:76:c0:e5:83:
                    a2:51:a8:8f:a1:5f:10:a1:dc:5c:d0:1a:d2:b0:bb:
                    b8:f7:a9:cf:8d:21:e0:98:0e:19:ff:15:e2:09:77:
                    6d:63:a2:16:f7:9e:59:fd:7f
                Exponent: 65537 (0x10001)
        X509v3 extensions:
            X509v3 Subject Alternative Name: 
                DNS:*.travis-ci.org, DNS:travis-ci.org
    Signature Algorithm: sha1WithRSAEncryption
         5d:6f:6a:f3:ae:13:1f:c5:a6:6f:5f:97:eb:90:3f:2f:80:f1:
         f4:15:1b:30:03:6d:49:ee:93:53:f2:f4:b2:84:10:42:23:dd:
         83:eb:36:0d:42:a2:cf:17:d7:95:9f:97:aa:34:9b:9d:67:76:
         74:02:69:8f:f6:6e:82:79:79:3c:16:86:af:74:1a:bc:de:f1:
         8f:f5:82:66:d3:68:42:b0:d4:f6:9c:de:98:89:b0:da:8f:95:
         4c:42:67:c1:97:72:bf:6b:1f:f0:b9:7b:6d:da:2b:cc:a3:57:
         bc:d0:a3:04:d9:ad:cc:0c:5d:fd:33:ab:cb:fb:9a:29:dd:99:
         08:58
-----BEGIN CERTIFICATE-----
MIIChjCCAe+gAwIBAgIFB2GJFjAwDQYJKoZIhvcNAQEFBQAwgaExCzAJBgNVBAYT
AlVTMRMwEQYDVQQIEwpDYWxpZm9ybmlhMRMwEQYDVQQHEwpEdW1teSBDaXR5MRsw
GQYDVQQKExJEdW1teSBPcmdhbml6YXRpb24xFzAVBgNVBAsTDkR1bW15IE9yZyBV
bml0MRIwEAYDVQQDEwlkdW1teS5jb20xHjAcBgkqhkiG9w0BCQEWD2R1bW15QGR1
bW15LmNvbTAeFw0xNDEwMjUwMDAwMDBaFw0xNTExMjcwOTAzMjFaMD0xITAfBgNV
BAsTGERvbWFpbiBDb250cm9sIFZhbGlkYXRlZDEYMBYGA1UEAxQPKi50cmF2aXMt
Y2kub3JnMIGfMA0GCSqGSIb3DQEBAQUAA4GNADCBiQKBgQCT/uH37jr3WmhGw3dE
3WtcHLLbPgI7GYKQItazSkH/4KkeL+gr1v0oTX61PQFVue0ygMt1t1k9okKABYTz
BGFOIZ3UBfpnLxT1U2/VQuP/31SI4KJMdsDlg6JRqI+hXxCh3FzQGtKwu7j3qc+N
IeCYDhn/FeIJd21johb3nln9fwIDAQABoy0wKzApBgNVHREEIjAggg8qLnRyYXZp
cy1jaS5vcmeCDXRyYXZpcy1jaS5vcmcwDQYJKoZIhvcNAQEFBQADgYEAXW9q864T
H8Wmb1+X65A/L4Dx9BUbMANtSe6TU/L0soQQQiPdg+s2DUKizxfXlZ+XqjSbnWd2
dAJpj/Zugnl5PBaGr3QavN7xj/WCZtNoQrDU9pzemImw2o+VTEJnwZdyv2sf8Ll7
bdorzKNXvNCjBNmtzAxd/TOry/uaKd2ZCFg=
-----END CERTIFICATE-----
