Certificate:
    Data:
        Version: 3 (0x2)
        Serial Number:
            36:29:32:57:80
    Signature Algorithm: sha1WithRSAEncryption
        Issuer: C=US, ST=California, L=Dummy City, O=Dummy Organization, OU=Dummy Org Unit, CN=dummy.com/emailAddress=dummy@dummy.com
        Validity
            Not Before: Oct 25 00:00:00 2014 GMT
            Not After : Nov 27 05:52:02 2015 GMT
        Subject: C=US, ST=California, L=Mountain View, O=Google Inc, CN=*.googleusercontent.com
        Subject Public Key Info:
            Public Key Algorithm: rsaEncryption
                Public-Key: (1024 bit)
                Modulus:
                    00:dd:79:ac:86:22:99:ea:f6:98:19:bc:ee:0e:2d:
                    14:09:be:ec:20:d4:b6:89:b0:14:39:9e:d5:72:eb:
                    89:90:a4:58:37:80:f4:15:b9:c1:d3:3f:b3:05:72:
                    0a:3e:c2:97:2f:7f:4f:72:0b:cb:8e:b9:7a:0b:10:
                    95:b4:ec:e0:e2:41:05:54:bf:12:2c:dc:57:7f:5c:
                    61:08:c0:ec:71:6e:39:41:19:31:79:9f:5a:7d:41:
                    f8:bf:85:c2:6b:fd:3a:2c:21:04:91:89:f8:71:87:
                    39:60:1e:c1:58:ac:92:0a:87:d4:42:25:ec:dc:c6:
                    7d:da:df:93:81:5f:3c:0d:05
                Exponent: 65537 (0x10001)
        X509v3 extensions:
            X509v3 Subject Alternative Name: 
                DNS:*.googleusercontent.com, DNS:*.blogspot.com, DNS:*.bp.blogspot.com, DNS:*.commondatastorage.googleapis.com, DNS:*.doubleclickusercontent.com, DNS:*.ggpht.com, DNS:*.googledrive.com, DNS:*.googlesyndication.com, DNS:*.sandbox.googleusercontent.com, DNS:*.storage.googleapis.com, DNS:blogspot.com, DNS:bp.blogspot.com, DNS:commondatastorage.googleapis.com, DNS:doubleclickusercontent.com, DNS:ggpht.com, DNS:googledrive.com, DNS:googleusercontent.com, DNS:static.panoramio.com.storage.googleapis.com, DNS:storage.googleapis.com
    Signature Algorithm: sha1WithRSAEncryption
         31:2f:3c:dd:21:fd:bf:52:d0:00:0e:a8:59:7b:82:06:6b:ff:
         9a:4b:6d:17:1b:7a:79:06:96:55:11:24:8d:75:21:bf:c0:ca:
         ad:a5:70:23:f3:cb:ba:07:3b:e5:c4:16:fd:0d:22:e0:e2:07:
         79:ee:cb:f4:bd:2c:7b:b7:b4:57:0c:38:55:17:80:c4:ef:4b:
         6e:4c:a1:bf:87:6c:b3:d4:02:4e:be:8b:df:1d:0b:d8:03:50:
         6e:6b:9b:4c:44:3f:14:f4:5f:cd:63:71:b2:53:15:dd:83:9e:
         3f:e1:7a:7e:3d:d6:9b:58:8b:d6:52:18:0f:d6:fe:ea:fe:61:
         db:ec
-----BEGIN CERTIFICATE-----
MIIEazCCA9SgAwIBAgIFNikyV4AwDQYJKoZIhvcNAQEFBQAwgaExCzAJBgNVBAYT
AlVTMRMwEQYDVQQIEwpDYWxpZm9ybmlhMRMwEQYDVQQHEwpEdW1teSBDaXR5MRsw
GQYDVQQKExJEdW1teSBPcmdhbml6YXRpb24xFzAVBgNVBAsTDkR1bW15IE9yZyBV
bml0MRIwEAYDVQQDEwlkdW1teS5jb20xHjAcBgkqhkiG9w0BCQEWD2R1bW15QGR1
bW15LmNvbTAeFw0xNDEwMjUwMDAwMDBaFw0xNTExMjcwNTUyMDJaMHExCzAJBgNV
BAYTAlVTMRMwEQYDVQQIEwpDYWxpZm9ybmlhMRYwFAYDVQQHEw1Nb3VudGFpbiBW
aWV3MRMwEQYDVQQKEwpHb29nbGUgSW5jMSAwHgYDVQQDFBcqLmdvb2dsZXVzZXJj
b250ZW50LmNvbTCBnzANBgkqhkiG9w0BAQEFAAOBjQAwgYkCgYEA3XmshiKZ6vaY
GbzuDi0UCb7sINS2ibAUOZ7VcuuJkKRYN4D0FbnB0z+zBXIKPsKXL39PcgvLjrl6
CxCVtOzg4kEFVL8SLNxXf1xhCMDscW45QRkxeZ9afUH4v4XCa/06LCEEkYn4cYc5
YB7BWKySCofUQiXs3MZ92t+TgV88DQUCAwEAAaOCAdwwggHYMIIB1AYDVR0RBIIB
yzCCAceCFyouZ29vZ2xldXNlcmNvbnRlbnQuY29tgg4qLmJsb2dzcG90LmNvbYIR
Ki5icC5ibG9nc3BvdC5jb22CIiouY29tbW9uZGF0YXN0b3JhZ2UuZ29vZ2xlYXBp
cy5jb22CHCouZG91YmxlY2xpY2t1c2VyY29udGVudC5jb22CCyouZ2dwaHQuY29t
ghEqLmdvb2dsZWRyaXZlLmNvbYIXKi5nb29nbGVzeW5kaWNhdGlvbi5jb22CHyou
c2FuZGJveC5nb29nbGV1c2VyY29udGVudC5jb22CGCouc3RvcmFnZS5nb29nbGVh
cGlzLmNvbYIMYmxvZ3Nwb3QuY29tgg9icC5ibG9nc3BvdC5jb22CIGNvbW1vbmRh
dGFzdG9yYWdlLmdvb2dsZWFwaXMuY29tghpkb3VibGVjbGlja3VzZXJjb250ZW50
LmNvbYIJZ2dwaHQuY29tgg9nb29nbGVkcml2ZS5jb22CFWdvb2dsZXVzZXJjb250
ZW50LmNvbYIrc3RhdGljLnBhbm9yYW1pby5jb20uc3RvcmFnZS5nb29nbGVhcGlz
LmNvbYIWc3RvcmFnZS5nb29nbGVhcGlzLmNvbTANBgkqhkiG9w0BAQUFAAOBgQAx
LzzdIf2/UtAADqhZe4IGa/+aS20XG3p5BpZVESSNdSG/wMqtpXAj88u6BzvlxBb9
DSLg4gd57sv0vSx7t7RXDDhVF4DE70tuTKG/h2yz1AJOvovfHQvYA1Bua5tMRD8U
9F/NY3GyUxXdg54/4Xp+PdabWIvWUhgP1v7q/mHb7A==
-----END CERTIFICATE-----
