Certificate:
    Data:
        Version: 3 (0x2)
        Serial Number:
            25:07:72:19:69
    Signature Algorithm: sha1WithRSAEncryption
        Issuer: C=US, ST=California, L=Dummy City, O=Dummy Organization, OU=Dummy Org Unit, CN=dummy.com/emailAddress=dummy@dummy.com
        Validity
            Not Before: Oct 25 00:00:00 2014 GMT
            Not After : Nov 27 05:52:01 2015 GMT
        Subject: C=US, ST=California, L=Mountain View, O=Google Inc, CN=*.google.com
        Subject Public Key Info:
            Public Key Algorithm: rsaEncryption
                Public-Key: (1024 bit)
                Modulus:
                    00:a2:3f:23:5f:53:f8:8a:33:ba:ba:d9:99:34:aa:
                    a1:14:26:51:e5:cc:9d:7c:e9:be:7f:b3:93:bc:94:
                    07:81:46:86:80:76:8c:b1:4c:a4:ed:14:37:f4:96:
                    7e:b4:f9:b4:d3:e3:23:53:ff:ec:9f:84:28:b1:c4:
                    49:f1:ed:8f:6b:b2:39:97:ec:74:bd:db:02:b8:54:
                    36:7c:1c:11:07:a6:21:2f:62:d6:3e:a0:2b:a0:3c:
                    fa:e0:4b:f0:7b:ba:7e:11:40:5f:da:88:ff:3e:95:
                    d7:b9:79:ed:f0:af:77:d3:32:10:02:9e:63:3b:90:
                    31:c8:58:41:22:5b:16:08:b5
                Exponent: 65537 (0x10001)
        X509v3 extensions:
            X509v3 Subject Alternative Name: 
                DNS:*.google.com, DNS:*.android.com, DNS:*.appengine.google.com, DNS:*.cloud.google.com, DNS:*.google-analytics.com, DNS:*.google.ca, DNS:*.google.cl, DNS:*.google.co.in, DNS:*.google.co.jp, DNS:*.google.co.uk, DNS:*.google.com.ar, DNS:*.google.com.au, DNS:*.google.com.br, DNS:*.google.com.co, DNS:*.google.com.mx, DNS:*.google.com.tr, DNS:*.google.com.vn, DNS:*.google.de, DNS:*.google.es, DNS:*.google.fr, DNS:*.google.hu, DNS:*.google.it, DNS:*.google.nl, DNS:*.google.pl, DNS:*.google.pt, DNS:*.googleadapis.com, DNS:*.googleapis.cn, DNS:*.googlecommerce.com, DNS:*.googlevideo.com, DNS:*.gstatic.cn, DNS:*.gstatic.com, DNS:*.gvt1.com, DNS:*.gvt2.com, DNS:*.metric.gstatic.com, DNS:*.urchin.com, DNS:*.url.google.com, DNS:*.youtube-nocookie.com, DNS:*.youtube.com, DNS:*.youtubeeducation.com, DNS:*.ytimg.com, DNS:android.com, DNS:g.co, DNS:goo.gl, DNS:google-analytics.com, DNS:google.com, DNS:googlecommerce.com, DNS:urchin.com, DNS:youtu.be, DNS:youtube.com, DNS:youtubeeducation.com
    Signature Algorithm: sha1WithRSAEncryption
         3d:b6:e0:49:57:c0:3f:10:e1:33:1f:79:22:e9:20:08:e8:79:
         2a:42:b3:26:db:85:38:aa:22:e4:7a:ce:45:27:38:27:e3:8c:
         71:f9:db:ea:5f:ba:02:ab:3b:17:a8:f1:54:da:f9:5e:ed:14:
         b8:b7:c2:cc:51:b3:46:dc:ab:b5:af:52:0f:bd:44:c5:45:6d:
         d4:19:32:c1:65:92:82:13:6f:61:43:0c:bc:c2:ac:ce:26:f5:
         0f:12:88:01:19:5e:05:fc:d0:23:0b:2c:ed:9e:bd:75:49:0d:
         4c:ec:91:70:d6:42:a8:2c:94:c0:56:fe:2d:23:7d:5c:37:bc:
         4a:9b
-----BEGIN CERTIFICATE-----
MIIFsjCCBRugAwIBAgIFJQdyGWkwDQYJKoZIhvcNAQEFBQAwgaExCzAJBgNVBAYT
AlVTMRMwEQYDVQQIEwpDYWxpZm9ybmlhMRMwEQYDVQQHEwpEdW1teSBDaXR5MRsw
GQYDVQQKExJEdW1teSBPcmdhbml6YXRpb24xFzAVBgNVBAsTDkR1bW15IE9yZyBV
bml0MRIwEAYDVQQDEwlkdW1teS5jb20xHjAcBgkqhkiG9w0BCQEWD2R1bW15QGR1
bW15LmNvbTAeFw0xNDEwMjUwMDAwMDBaFw0xNTExMjcwNTUyMDFaMGYxCzAJBgNV
BAYTAlVTMRMwEQYDVQQIEwpDYWxpZm9ybmlhMRYwFAYDVQQHEw1Nb3VudGFpbiBW
aWV3MRMwEQYDVQQKEwpHb29nbGUgSW5jMRUwEwYDVQQDFAwqLmdvb2dsZS5jb20w
gZ8wDQYJKoZIhvcNAQEBBQADgY0AMIGJAoGBAKI/I19T+IozurrZmTSqoRQmUeXM
nXzpvn+zk7yUB4FGhoB2jLFMpO0UN/SWfrT5tNPjI1P/7J+EKLHESfHtj2uyOZfs
dL3bArhUNnwcEQemIS9i1j6gK6A8+uBL8Hu6fhFAX9qI/z6V17l57fCvd9MyEAKe
YzuQMchYQSJbFgi1AgMBAAGjggMuMIIDKjCCAyYGA1UdEQSCAx0wggMZggwqLmdv
b2dsZS5jb22CDSouYW5kcm9pZC5jb22CFiouYXBwZW5naW5lLmdvb2dsZS5jb22C
EiouY2xvdWQuZ29vZ2xlLmNvbYIWKi5nb29nbGUtYW5hbHl0aWNzLmNvbYILKi5n
b29nbGUuY2GCCyouZ29vZ2xlLmNsgg4qLmdvb2dsZS5jby5pboIOKi5nb29nbGUu
Y28uanCCDiouZ29vZ2xlLmNvLnVrgg8qLmdvb2dsZS5jb20uYXKCDyouZ29vZ2xl
LmNvbS5hdYIPKi5nb29nbGUuY29tLmJygg8qLmdvb2dsZS5jb20uY2+CDyouZ29v
Z2xlLmNvbS5teIIPKi5nb29nbGUuY29tLnRygg8qLmdvb2dsZS5jb20udm6CCyou
Z29vZ2xlLmRlggsqLmdvb2dsZS5lc4ILKi5nb29nbGUuZnKCCyouZ29vZ2xlLmh1
ggsqLmdvb2dsZS5pdIILKi5nb29nbGUubmyCCyouZ29vZ2xlLnBsggsqLmdvb2ds
ZS5wdIISKi5nb29nbGVhZGFwaXMuY29tgg8qLmdvb2dsZWFwaXMuY26CFCouZ29v
Z2xlY29tbWVyY2UuY29tghEqLmdvb2dsZXZpZGVvLmNvbYIMKi5nc3RhdGljLmNu
gg0qLmdzdGF0aWMuY29tggoqLmd2dDEuY29tggoqLmd2dDIuY29tghQqLm1ldHJp
Yy5nc3RhdGljLmNvbYIMKi51cmNoaW4uY29tghAqLnVybC5nb29nbGUuY29tghYq
LnlvdXR1YmUtbm9jb29raWUuY29tgg0qLnlvdXR1YmUuY29tghYqLnlvdXR1YmVl
ZHVjYXRpb24uY29tggsqLnl0aW1nLmNvbYILYW5kcm9pZC5jb22CBGcuY2+CBmdv
by5nbIIUZ29vZ2xlLWFuYWx5dGljcy5jb22CCmdvb2dsZS5jb22CEmdvb2dsZWNv
bW1lcmNlLmNvbYIKdXJjaGluLmNvbYIIeW91dHUuYmWCC3lvdXR1YmUuY29tghR5
b3V0dWJlZWR1Y2F0aW9uLmNvbTANBgkqhkiG9w0BAQUFAAOBgQA9tuBJV8A/EOEz
H3ki6SAI6HkqQrMm24U4qiLkes5FJzgn44xx+dvqX7oCqzsXqPFU2vle7RS4t8LM
UbNG3Ku1r1IPvUTFRW3UGTLBZZKCE29hQwy8wqzOJvUPEogBGV4F/NAjCyztnr11
SQ1M7JFw1kKoLJTAVv4tI31cN7xKmw==
-----END CERTIFICATE-----
