Certificate:
    Data:
        Version: 3 (0x2)
        Serial Number:
            13:79:52:09:76
    Signature Algorithm: sha1WithRSAEncryption
        Issuer: C=US, ST=California, L=Dummy City, O=Dummy Organization, OU=Dummy Org Unit, CN=dummy.com/emailAddress=dummy@dummy.com
        Validity
            Not Before: Oct 25 00:00:00 2014 GMT
            Not After : Nov 27 07:05:04 2015 GMT
        Subject: C=US, ST=MA, L=Cambridge, O=Akamai Technologies, Inc., CN=a248.e.akamai.net
        Subject Public Key Info:
            Public Key Algorithm: rsaEncryption
                Public-Key: (1024 bit)
                Modulus:
                    00:b7:48:2f:59:c2:76:15:19:43:2a:6d:e4:21:47:
                    0b:9d:66:e2:1e:5b:02:d6:ca:be:6d:db:fe:ba:2f:
                    4f:c9:c4:75:24:ee:77:3b:34:83:88:1d:61:c3:03:
                    77:03:3d:ac:db:66:df:af:49:a2:f3:fb:51:c9:12:
                    d9:a7:d3:62:23:0d:e4:0c:75:08:48:f7:91:b1:c8:
                    03:f4:fb:c2:f4:5b:d8:e3:88:bd:93:c7:af:64:f1:
                    43:33:b3:ff:12:34:5a:2d:ef:ce:6a:58:2b:f4:de:
                    f9:60:89:f1:68:93:61:cc:2d:f3:61:86:83:65:87:
                    d7:3b:43:d6:60:15:dc:c4:69
                Exponent: 65537 (0x10001)
        X509v3 extensions:
            X509v3 Subject Alternative Name: 
                DNS:a248.e.akamai.net, DNS:*.s3q.akamaihd.net, DNS:srvjs-a.akamaihd.net, DNS:k-a.akamaihd.net, DNS:cdnt3m-a.akamaihd.net, DNS:epixhlsvod-i.akamaihd.net
    Signature Algorithm: sha1WithRSAEncryption
         7f:9b:01:3f:f4:0a:01:88:b4:bc:fb:3d:dd:dc:d8:a1:af:a7:
         a8:61:ab:ae:7d:ff:84:0a:1a:f6:33:97:6c:ef:8a:7f:85:c0:
         65:8b:00:66:77:a1:16:b5:a0:31:35:53:e9:95:34:27:ba:58:
         e4:54:e6:4b:35:72:50:01:55:94:eb:40:ea:9a:f0:97:be:3d:
         1e:28:b1:51:d3:c3:c0:46:45:44:84:e9:e8:c3:cb:a2:73:14:
         93:99:52:24:88:b9:fb:3d:d5:c7:de:0b:62:41:92:7b:4b:b5:
         46:fd:b3:9a:ca:c5:a3:fd:b4:4b:aa:d8:47:bb:3a:03:fa:e3:
         84:3b
-----BEGIN CERTIFICATE-----
MIIDHTCCAoagAwIBAgIFE3lSCXYwDQYJKoZIhvcNAQEFBQAwgaExCzAJBgNVBAYT
AlVTMRMwEQYDVQQIEwpDYWxpZm9ybmlhMRMwEQYDVQQHEwpEdW1teSBDaXR5MRsw
GQYDVQQKExJEdW1teSBPcmdhbml6YXRpb24xFzAVBgNVBAsTDkR1bW15IE9yZyBV
bml0MRIwEAYDVQQDEwlkdW1teS5jb20xHjAcBgkqhkiG9w0BCQEWD2R1bW15QGR1
bW15LmNvbTAeFw0xNDEwMjUwMDAwMDBaFw0xNTExMjcwNzA1MDRaMG4xCzAJBgNV
BAYTAlVTMQswCQYDVQQIEwJNQTESMBAGA1UEBxMJQ2FtYnJpZGdlMSIwIAYDVQQK
ExlBa2FtYWkgVGVjaG5vbG9naWVzLCBJbmMuMRowGAYDVQQDExFhMjQ4LmUuYWth
bWFpLm5ldDCBnzANBgkqhkiG9w0BAQEFAAOBjQAwgYkCgYEAt0gvWcJ2FRlDKm3k
IUcLnWbiHlsC1sq+bdv+ui9PycR1JO53OzSDiB1hwwN3Az2s22bfr0mi8/tRyRLZ
p9NiIw3kDHUISPeRscgD9PvC9FvY44i9k8evZPFDM7P/EjRaLe/Oalgr9N75YInx
aJNhzC3zYYaDZYfXO0PWYBXcxGkCAwEAAaOBkjCBjzCBjAYDVR0RBIGEMIGBghFh
MjQ4LmUuYWthbWFpLm5ldIISKi5zM3EuYWthbWFpaGQubmV0ghRzcnZqcy1hLmFr
YW1haWhkLm5ldIIQay1hLmFrYW1haWhkLm5ldIIVY2RudDNtLWEuYWthbWFpaGQu
bmV0ghllcGl4aGxzdm9kLWkuYWthbWFpaGQubmV0MA0GCSqGSIb3DQEBBQUAA4GB
AH+bAT/0CgGItLz7Pd3c2KGvp6hhq659/4QKGvYzl2zvin+FwGWLAGZ3oRa1oDE1
U+mVNCe6WORU5ks1clABVZTrQOqa8Je+PR4osVHTw8BGRUSE6ejDy6JzFJOZUiSI
ufs91cfeC2JBkntLtUb9s5rKxaP9tEuq2Ee7OgP644Q7
-----END CERTIFICATE-----
