Certificate:
    Data:
        Version: 3 (0x2)
        Serial Number:
            37:13:41:70:30
    Signature Algorithm: sha1WithRSAEncryption
        Issuer: C=US, ST=California, L=Dummy City, O=Dummy Organization, OU=Dummy Org Unit, CN=dummy.com/emailAddress=dummy@dummy.com
        Validity
            Not Before: Oct 25 00:00:00 2014 GMT
            Not After : Nov 27 09:17:49 2015 GMT
        Subject: C=US, ST=California, L=San Francisco, O=GitHub, Inc., CN=github.com
        Subject Public Key Info:
            Public Key Algorithm: rsaEncryption
                Public-Key: (1024 bit)
                Modulus:
                    00:bf:56:af:f6:2f:03:be:e8:3c:c8:19:17:06:07:
                    0a:6c:56:4a:40:49:82:16:8a:7c:5d:2c:a0:19:e3:
                    45:28:4b:4f:bd:6f:77:33:d4:5c:a4:2c:7b:ff:74:
                    29:ae:14:58:4a:1f:b0:20:1c:bd:31:92:0e:69:39:
                    8e:a9:be:c1:d1:86:35:ac:dc:c7:f8:10:4d:53:2a:
                    3d:2d:d1:cd:a6:b9:76:21:d9:42:7a:f9:fd:14:1d:
                    07:02:94:6d:d1:99:04:fb:95:82:63:aa:be:b1:55:
                    16:86:8f:70:1c:cd:8a:1d:39:e0:33:d9:98:51:8e:
                    f9:f9:13:66:61:60:8d:52:f7
                Exponent: 65537 (0x10001)
        X509v3 extensions:
            X509v3 Subject Alternative Name: 
                DNS:github.com, DNS:www.github.com
    Signature Algorithm: sha1WithRSAEncryption
         07:2e:d4:ee:bc:d0:76:0d:58:d5:93:e4:d4:13:1c:8b:26:2a:
         94:19:35:b9:a9:3f:79:03:d9:3d:3c:a9:05:dd:1a:d6:93:75:
         33:7b:20:26:11:1f:05:7a:db:3d:6a:f9:6f:3a:50:0f:06:31:
         3e:f6:7b:d4:57:0c:43:a1:ca:7e:35:87:e8:3e:d0:dc:9b:0c:
         1e:3d:56:c4:8d:ae:a2:f1:70:c9:dd:c2:31:2d:0d:9a:6b:73:
         51:17:31:8a:59:7d:21:fc:5f:1e:9e:99:1d:9a:2d:10:0b:e6:
         57:5c:f5:52:62:d3:98:73:57:ea:23:36:cb:79:88:13:b6:ec:
         12:47
-----BEGIN CERTIFICATE-----
MIICqzCCAhSgAwIBAgIFNxNBcDAwDQYJKoZIhvcNAQEFBQAwgaExCzAJBgNVBAYT
AlVTMRMwEQYDVQQIEwpDYWxpZm9ybmlhMRMwEQYDVQQHEwpEdW1teSBDaXR5MRsw
GQYDVQQKExJEdW1teSBPcmdhbml6YXRpb24xFzAVBgNVBAsTDkR1bW15IE9yZyBV
bml0MRIwEAYDVQQDEwlkdW1teS5jb20xHjAcBgkqhkiG9w0BCQEWD2R1bW15QGR1
bW15LmNvbTAeFw0xNDEwMjUwMDAwMDBaFw0xNTExMjcwOTE3NDlaMGYxCzAJBgNV
BAYTAlVTMRMwEQYDVQQIEwpDYWxpZm9ybmlhMRYwFAYDVQQHEw1TYW4gRnJhbmNp
c2NvMRUwEwYDVQQKEwxHaXRIdWIsIEluYy4xEzARBgNVBAMTCmdpdGh1Yi5jb20w
gZ8wDQYJKoZIhvcNAQEBBQADgY0AMIGJAoGBAL9Wr/YvA77oPMgZFwYHCmxWSkBJ
ghaKfF0soBnjRShLT71vdzPUXKQse/90Ka4UWEofsCAcvTGSDmk5jqm+wdGGNazc
x/gQTVMqPS3Rzaa5diHZQnr5/RQdBwKUbdGZBPuVgmOqvrFVFoaPcBzNih054DPZ
mFGO+fkTZmFgjVL3AgMBAAGjKTAnMCUGA1UdEQQeMByCCmdpdGh1Yi5jb22CDnd3
dy5naXRodWIuY29tMA0GCSqGSIb3DQEBBQUAA4GBAAcu1O680HYNWNWT5NQTHIsm
KpQZNbmpP3kD2T08qQXdGtaTdTN7ICYRHwV62z1q+W86UA8GMT72e9RXDEOhyn41
h+g+0NybDB49VsSNrqLxcMndwjEtDZprc1EXMYpZfSH8Xx6emR2aLRAL5ldc9VJi
05hzV+ojNst5iBO27BJH
-----END CERTIFICATE-----
