Certificate:
    Data:
        Version: 3 (0x2)
        Serial Number:
            27:76:88:07:89
    Signature Algorithm: sha1WithRSAEncryption
        Issuer: C=US, ST=California, L=Dummy City, O=Dummy Organization, OU=Dummy Org Unit, CN=dummy.com/emailAddress=dummy@dummy.com
        Validity
            Not Before: Oct 25 00:00:00 2014 GMT
            Not After : Nov 27 07:05:13 2015 GMT
        Subject: C=US, ST=NY, L=New York, O=Chartbeat Inc., OU=Ops, CN=*.chartbeat.net
        Subject Public Key Info:
            Public Key Algorithm: rsaEncryption
                Public-Key: (1024 bit)
                Modulus:
                    00:d3:dd:4f:7d:28:c9:cd:30:7d:69:7e:ee:7e:db:
                    6e:65:78:62:cc:1a:3f:20:50:fb:6e:2e:24:78:91:
                    c1:ce:a5:32:e2:a9:e6:5e:c0:e5:db:4e:3e:3c:de:
                    7e:ea:1a:23:14:2c:ca:e9:ab:20:f1:b0:33:70:ad:
                    86:b8:aa:4e:8b:87:54:0e:ec:9e:a5:08:b2:c3:5e:
                    81:fe:ff:b4:6d:32:cc:65:35:9e:a6:3b:94:b8:ff:
                    ef:c8:40:90:f7:da:85:d8:28:8d:c4:2d:90:5e:bd:
                    64:25:86:f5:8c:e4:d1:cf:22:cb:56:e5:3b:4c:15:
                    51:e9:38:9a:dd:e3:5e:03:17
                Exponent: 65537 (0x10001)
        X509v3 extensions:
            X509v3 Subject Alternative Name: 
                DNS:*.chartbeat.net
    Signature Algorithm: sha1WithRSAEncryption
         81:1c:69:23:78:a5:67:59:18:bf:77:c1:07:87:5b:ea:49:4f:
         39:62:b7:ce:d5:94:5f:60:26:28:92:22:e3:ab:78:16:73:10:
         a9:ab:b5:63:a0:a6:d5:68:c4:15:fe:88:7a:7e:e5:fd:c8:77:
         5d:46:10:ea:84:89:53:4e:25:7e:4d:0a:c3:da:5d:29:66:a3:
         0a:c8:1c:3b:bc:71:16:28:69:3b:b9:2e:ed:84:8a:c1:b5:1e:
         16:a6:3c:ab:88:23:a9:70:e4:c7:68:81:c0:f1:b7:57:ad:11:
         c3:0c:99:49:de:fa:44:9d:5b:68:e6:18:e3:4f:b0:97:7a:0e:
         c3:a9
-----BEGIN CERTIFICATE-----
MIICqDCCAhGgAwIBAgIFJ3aIB4kwDQYJKoZIhvcNAQEFBQAwgaExCzAJBgNVBAYT
AlVTMRMwEQYDVQQIEwpDYWxpZm9ybmlhMRMwEQYDVQQHEwpEdW1teSBDaXR5MRsw
GQYDVQQKExJEdW1teSBPcmdhbml6YXRpb24xFzAVBgNVBAsTDkR1bW15IE9yZyBV
bml0MRIwEAYDVQQDEwlkdW1teS5jb20xHjAcBgkqhkiG9w0BCQEWD2R1bW15QGR1
bW15LmNvbTAeFw0xNDEwMjUwMDAwMDBaFw0xNTExMjcwNzA1MTNaMG4xCzAJBgNV
BAYTAlVTMQswCQYDVQQIEwJOWTERMA8GA1UEBxMITmV3IFlvcmsxFzAVBgNVBAoT
DkNoYXJ0YmVhdCBJbmMuMQwwCgYDVQQLEwNPcHMxGDAWBgNVBAMUDyouY2hhcnRi
ZWF0Lm5ldDCBnzANBgkqhkiG9w0BAQEFAAOBjQAwgYkCgYEA091PfSjJzTB9aX7u
fttuZXhizBo/IFD7bi4keJHBzqUy4qnmXsDl204+PN5+6hojFCzK6asg8bAzcK2G
uKpOi4dUDuyepQiyw16B/v+0bTLMZTWepjuUuP/vyECQ99qF2CiNxC2QXr1kJYb1
jOTRzyLLVuU7TBVR6Tia3eNeAxcCAwEAAaMeMBwwGgYDVR0RBBMwEYIPKi5jaGFy
dGJlYXQubmV0MA0GCSqGSIb3DQEBBQUAA4GBAIEcaSN4pWdZGL93wQeHW+pJTzli
t87VlF9gJiiSIuOreBZzEKmrtWOgptVoxBX+iHp+5f3Id11GEOqEiVNOJX5NCsPa
XSlmowrIHDu8cRYoaTu5Lu2EisG1HhamPKuII6lw5MdogcDxt1etEcMMmUne+kSd
W2jmGONPsJd6DsOp
-----END CERTIFICATE-----
