Certificate:
    Data:
        Version: 3 (0x2)
        Serial Number:
            27:41:51:14:15
    Signature Algorithm: sha1WithRSAEncryption
        Issuer: C=US, ST=California, L=Dummy City, O=Dummy Organization, OU=Dummy Org Unit, CN=dummy.com/emailAddress=dummy@dummy.com
        Validity
            Not Before: Oct 25 00:00:00 2014 GMT
            Not After : Nov 27 05:53:04 2015 GMT
        Subject: OU=GT30390087, CN=*.crdui.com
        Subject Public Key Info:
            Public Key Algorithm: rsaEncryption
                Public-Key: (1024 bit)
                Modulus:
                    00:ce:c6:76:5f:4c:ae:13:f4:3a:24:35:46:20:23:
                    e4:6c:d1:25:0d:bb:25:10:2d:0e:3e:5d:d9:53:2f:
                    d0:73:7d:5c:93:a1:b4:fc:5d:96:e6:de:76:43:20:
                    ac:68:ac:f6:39:f1:59:71:6d:33:35:d9:b6:75:a4:
                    60:41:fc:a9:85:9c:00:c3:1d:f0:32:7a:7d:3e:ab:
                    0b:2e:58:b1:2d:2d:cb:7a:09:52:c7:50:85:6c:09:
                    c4:4d:cf:7f:8d:44:3a:48:cc:97:e3:f3:8d:40:82:
                    6b:12:80:2f:f6:94:2b:7a:2b:a2:7a:a2:e8:15:09:
                    e3:d2:9a:eb:61:51:5c:be:f3
                Exponent: 65537 (0x10001)
        X509v3 extensions:
            X509v3 Subject Alternative Name: 
                DNS:*.crdui.com, DNS:crdui.com
    Signature Algorithm: sha1WithRSAEncryption
         99:bb:33:b1:ae:4d:35:3d:7e:55:51:66:b5:96:d0:0f:8f:f4:
         93:b1:ff:3b:ba:ad:b8:bd:97:20:ae:0f:fe:32:3f:cd:4f:6f:
         22:d9:0e:cf:44:cd:f7:fa:99:fa:4e:14:62:3e:3a:d8:ef:dd:
         8f:e4:58:25:e8:e8:04:c7:f9:f1:8b:b7:38:f7:2f:bb:37:ca:
         6a:ab:e5:26:46:f4:2a:fa:6a:ad:c7:51:ce:97:2b:fc:27:47:
         c3:10:ef:7b:b9:62:1a:b7:bd:39:1d:ba:4f:8b:81:ec:40:28:
         bf:03:13:1a:0a:6a:0d:9d:74:e6:3d:16:58:dc:99:7e:c1:6d:
         be:0d
-----BEGIN CERTIFICATE-----
MIICbDCCAdWgAwIBAgIFJ0FRFBUwDQYJKoZIhvcNAQEFBQAwgaExCzAJBgNVBAYT
AlVTMRMwEQYDVQQIEwpDYWxpZm9ybmlhMRMwEQYDVQQHEwpEdW1teSBDaXR5MRsw
GQYDVQQKExJEdW1teSBPcmdhbml6YXRpb24xFzAVBgNVBAsTDkR1bW15IE9yZyBV
bml0MRIwEAYDVQQDEwlkdW1teS5jb20xHjAcBgkqhkiG9w0BCQEWD2R1bW15QGR1
bW15LmNvbTAeFw0xNDEwMjUwMDAwMDBaFw0xNTExMjcwNTUzMDRaMCsxEzARBgNV
BAsTCkdUMzAzOTAwODcxFDASBgNVBAMUCyouY3JkdWkuY29tMIGfMA0GCSqGSIb3
DQEBAQUAA4GNADCBiQKBgQDOxnZfTK4T9DokNUYgI+Rs0SUNuyUQLQ4+XdlTL9Bz
fVyTobT8XZbm3nZDIKxorPY58VlxbTM12bZ1pGBB/KmFnADDHfAyen0+qwsuWLEt
Lct6CVLHUIVsCcRNz3+NRDpIzJfj841AgmsSgC/2lCt6K6J6ougVCePSmuthUVy+
8wIDAQABoyUwIzAhBgNVHREEGjAYggsqLmNyZHVpLmNvbYIJY3JkdWkuY29tMA0G
CSqGSIb3DQEBBQUAA4GBAJm7M7GuTTU9flVRZrWW0A+P9JOx/zu6rbi9lyCuD/4y
P81PbyLZDs9Ezff6mfpOFGI+Otjv3Y/kWCXo6ATH+fGLtzj3L7s3ymqr5SZG9Cr6
aq3HUc6XK/wnR8MQ73u5Yhq3vTkduk+LgexAKL8DExoKag2ddOY9FljcmX7Bbb4N
-----END CERTIFICATE-----
