Certificate:
    Data:
        Version: 3 (0x2)
        Serial Number:
            32:66:25:99:03
    Signature Algorithm: sha1WithRSAEncryption
        Issuer: C=US, ST=California, L=Dummy City, O=Dummy Organization, OU=Dummy Org Unit, CN=dummy.com/emailAddress=dummy@dummy.com
        Validity
            Not Before: Oct 25 00:00:00 2014 GMT
            Not After : Nov 27 07:04:34 2015 GMT
        Subject: C=US, ST=New York, L=New York, O=Nodejitsu Inc., CN=*.nodejitsu.com
        Subject Public Key Info:
            Public Key Algorithm: rsaEncryption
                Public-Key: (1024 bit)
                Modulus:
                    00:c7:fc:f8:8e:e5:93:e1:a7:cd:ec:86:73:23:34:
                    c1:2d:f4:c5:bf:06:83:71:8c:a6:94:b4:18:b7:1b:
                    30:95:af:cb:a3:c0:44:cd:3c:2d:8b:30:8b:e2:96:
                    4f:b8:63:2d:6c:fa:49:6d:00:11:d9:d3:29:7e:f7:
                    d0:7b:e2:e0:33:16:40:21:73:54:fd:5a:75:60:ba:
                    b0:45:4f:ea:a0:9c:83:ee:3a:e6:bf:1d:70:fa:3f:
                    67:a4:ea:8b:0f:af:d7:a3:b2:63:bc:fe:52:b1:4d:
                    0f:dc:ce:6b:ae:df:9c:3a:8a:c1:92:81:8c:af:29:
                    6f:b3:67:f8:52:29:51:28:87
                Exponent: 65537 (0x10001)
        X509v3 extensions:
            X509v3 Subject Alternative Name: 
                DNS:*.nodejitsu.com, DNS:nodejitsu.com
    Signature Algorithm: sha1WithRSAEncryption
         5b:46:5a:09:52:cf:a3:f6:b4:3a:ff:7a:0b:ab:63:a5:8e:ee:
         09:1a:2a:36:ed:78:83:4f:6e:33:86:6a:88:10:9e:90:0d:03:
         f9:71:f3:d2:6a:b6:d5:78:d3:5c:16:99:0a:d9:66:b2:87:61:
         b3:80:f4:e0:a7:5a:25:aa:10:4f:81:f9:13:b0:77:ff:27:48:
         0d:56:b1:a5:e0:59:cf:31:a1:06:ea:62:e3:2b:aa:6c:4f:76:
         c6:dc:3f:c9:10:37:9f:3d:1e:fe:75:99:87:07:0a:6a:40:71:
         07:17:07:bb:ab:4b:5a:19:43:e9:60:38:c8:1c:30:00:7e:f7:
         da:11
-----BEGIN CERTIFICATE-----
MIICrzCCAhigAwIBAgIFMmYlmQMwDQYJKoZIhvcNAQEFBQAwgaExCzAJBgNVBAYT
AlVTMRMwEQYDVQQIEwpDYWxpZm9ybmlhMRMwEQYDVQQHEwpEdW1teSBDaXR5MRsw
GQYDVQQKExJEdW1teSBPcmdhbml6YXRpb24xFzAVBgNVBAsTDkR1bW15IE9yZyBV
bml0MRIwEAYDVQQDEwlkdW1teS5jb20xHjAcBgkqhkiG9w0BCQEWD2R1bW15QGR1
bW15LmNvbTAeFw0xNDEwMjUwMDAwMDBaFw0xNTExMjcwNzA0MzRaMGYxCzAJBgNV
BAYTAlVTMREwDwYDVQQIEwhOZXcgWW9yazERMA8GA1UEBxMITmV3IFlvcmsxFzAV
BgNVBAoTDk5vZGVqaXRzdSBJbmMuMRgwFgYDVQQDFA8qLm5vZGVqaXRzdS5jb20w
gZ8wDQYJKoZIhvcNAQEBBQADgY0AMIGJAoGBAMf8+I7lk+GnzeyGcyM0wS30xb8G
g3GMppS0GLcbMJWvy6PARM08LYswi+KWT7hjLWz6SW0AEdnTKX730Hvi4DMWQCFz
VP1adWC6sEVP6qCcg+465r8dcPo/Z6Tqiw+v16OyY7z+UrFND9zOa67fnDqKwZKB
jK8pb7Nn+FIpUSiHAgMBAAGjLTArMCkGA1UdEQQiMCCCDyoubm9kZWppdHN1LmNv
bYINbm9kZWppdHN1LmNvbTANBgkqhkiG9w0BAQUFAAOBgQBbRloJUs+j9rQ6/3oL
q2Olju4JGio27XiDT24zhmqIEJ6QDQP5cfPSarbVeNNcFpkK2Wayh2GzgPTgp1ol
qhBPgfkTsHf/J0gNVrGl4FnPMaEG6mLjK6psT3bG3D/JEDefPR7+dZmHBwpqQHEH
Fwe7q0taGUPpYDjIHDAAfvfaEQ==
-----END CERTIFICATE-----
