Certificate:
    Data:
        Version: 3 (0x2)
        Serial Number:
            39:59:47:00:45
    Signature Algorithm: sha1WithRSAEncryption
        Issuer: C=US, ST=California, L=Dummy City, O=Dummy Organization, OU=Dummy Org Unit, CN=dummy.com/emailAddress=dummy@dummy.com
        Validity
            Not Before: Oct 25 00:00:00 2014 GMT
            Not After : Nov 27 09:27:26 2015 GMT
        Subject: C=US, ST=Washington, L=Seattle, O=Amazon.com Inc., CN=*.cloudfront.net
        Subject Public Key Info:
            Public Key Algorithm: rsaEncryption
                Public-Key: (1024 bit)
                Modulus:
                    00:bc:6c:a8:38:d5:76:af:9b:78:1a:84:5f:6a:44:
                    cd:2f:4e:2c:29:e4:3a:c5:61:e1:ac:25:30:05:57:
                    5e:ef:9e:34:1c:fe:2a:28:e4:03:d3:8a:76:9d:3d:
                    70:3d:e4:21:8b:47:b7:c0:c4:40:fc:d0:96:ca:6e:
                    37:c4:d7:fc:b2:46:50:06:c4:75:00:f1:15:26:47:
                    6f:a1:0f:97:41:58:2a:b3:91:19:c8:5a:f6:7c:77:
                    18:8f:42:dc:33:97:9a:43:85:c6:d5:c1:66:f5:3c:
                    84:80:31:6a:b1:c3:a9:a3:06:69:22:c9:fd:e7:97:
                    10:46:73:f1:6e:66:7c:99:41
                Exponent: 65537 (0x10001)
        X509v3 extensions:
            X509v3 Subject Alternative Name: 
                DNS:cloudfront.net, DNS:*.cloudfront.net
    Signature Algorithm: sha1WithRSAEncryption
         28:50:36:68:73:74:ff:27:37:86:14:1a:79:16:6f:08:90:61:
         78:6d:cf:f0:95:4b:e5:5a:ce:56:33:3b:9e:f5:88:fd:17:dd:
         39:e3:d8:e6:63:d1:d8:30:50:1b:87:d4:61:01:06:12:90:5f:
         9e:cf:21:92:63:16:ed:33:28:39:37:05:d4:da:8a:de:c1:e7:
         76:16:8a:35:f8:f1:08:60:65:4f:48:86:18:c1:34:3f:98:44:
         fe:ec:5d:9c:e6:74:9e:b8:99:a1:40:6b:3d:f2:21:c5:e4:b1:
         27:32:04:62:5d:69:37:2a:aa:74:1a:2c:3c:23:60:ff:02:1c:
         7b:1c
-----BEGIN CERTIFICATE-----
MIICtDCCAh2gAwIBAgIFOVlHAEUwDQYJKoZIhvcNAQEFBQAwgaExCzAJBgNVBAYT
AlVTMRMwEQYDVQQIEwpDYWxpZm9ybmlhMRMwEQYDVQQHEwpEdW1teSBDaXR5MRsw
GQYDVQQKExJEdW1teSBPcmdhbml6YXRpb24xFzAVBgNVBAsTDkR1bW15IE9yZyBV
bml0MRIwEAYDVQQDEwlkdW1teS5jb20xHjAcBgkqhkiG9w0BCQEWD2R1bW15QGR1
bW15LmNvbTAeFw0xNDEwMjUwMDAwMDBaFw0xNTExMjcwOTI3MjZaMGkxCzAJBgNV
BAYTAlVTMRMwEQYDVQQIEwpXYXNoaW5ndG9uMRAwDgYDVQQHEwdTZWF0dGxlMRgw
FgYDVQQKEw9BbWF6b24uY29tIEluYy4xGTAXBgNVBAMUECouY2xvdWRmcm9udC5u
ZXQwgZ8wDQYJKoZIhvcNAQEBBQADgY0AMIGJAoGBALxsqDjVdq+beBqEX2pEzS9O
LCnkOsVh4awlMAVXXu+eNBz+KijkA9OKdp09cD3kIYtHt8DEQPzQlspuN8TX/LJG
UAbEdQDxFSZHb6EPl0FYKrORGcha9nx3GI9C3DOXmkOFxtXBZvU8hIAxarHDqaMG
aSLJ/eeXEEZz8W5mfJlBAgMBAAGjLzAtMCsGA1UdEQQkMCKCDmNsb3VkZnJvbnQu
bmV0ghAqLmNsb3VkZnJvbnQubmV0MA0GCSqGSIb3DQEBBQUAA4GBAChQNmhzdP8n
N4YUGnkWbwiQYXhtz/CVS+VazlYzO571iP0X3Tnj2OZj0dgwUBuH1GEBBhKQX57P
IZJjFu0zKDk3BdTait7B53YWijX48QhgZU9IhhjBND+YRP7sXZzmdJ64maFAaz3y
IcXksScyBGJdaTcqqnQaLDwjYP8CHHsc
-----END CERTIFICATE-----
