Certificate:
    Data:
        Version: 3 (0x2)
        Serial Number:
            03:59:14:65:74
    Signature Algorithm: sha1WithRSAEncryption
        Issuer: C=US, ST=California, L=Dummy City, O=Dummy Organization, OU=Dummy Org Unit, CN=dummy.com/emailAddress=dummy@dummy.com
        Validity
            Not Before: Oct 25 00:00:00 2014 GMT
            Not After : Nov 27 08:58:28 2015 GMT
        Subject: C=US, ST=Massachusetts, L=Cambridge, O=HubSpot, Inc., CN=*.hubspot.com
        Subject Public Key Info:
            Public Key Algorithm: rsaEncryption
                Public-Key: (1024 bit)
                Modulus:
                    00:d0:e3:cf:77:49:cd:f5:97:de:f7:0c:16:fc:4b:
                    4f:7d:4e:93:e9:1f:4e:e2:3e:a9:df:a4:16:f5:fd:
                    13:84:a2:2e:85:99:c2:19:43:e6:bb:0d:ec:46:14:
                    33:66:e8:a4:af:ad:33:6d:9c:63:d9:be:e2:fe:17:
                    7a:7c:50:19:7a:68:ad:6d:af:bd:2e:51:90:da:5f:
                    16:5a:1d:03:ce:ef:8a:e8:ba:64:44:1d:a3:57:40:
                    dc:d1:7f:46:c8:50:65:34:6d:62:40:9d:a2:34:3d:
                    42:15:ac:8e:2c:8d:de:a1:c4:7c:0b:a3:91:99:69:
                    57:71:10:d0:cf:be:e8:20:6d
                Exponent: 65537 (0x10001)
        X509v3 extensions:
            X509v3 Subject Alternative Name: 
                DNS:*.hubspot.com, DNS:hubspot.com
    Signature Algorithm: sha1WithRSAEncryption
         5d:cb:49:a7:9c:00:f5:c9:b2:30:42:7b:e6:bf:1e:64:50:27:
         0d:1b:75:90:0a:c9:b0:01:d0:77:ad:4b:be:35:92:c7:23:97:
         b8:13:74:fd:51:3d:3a:d8:b6:f8:ef:3d:20:51:fa:2d:4f:9c:
         29:62:6c:85:69:5f:2a:20:4e:01:df:c9:1c:1e:be:f4:50:65:
         2b:58:40:bb:93:17:cc:13:f2:4d:73:78:50:0e:72:2d:43:ca:
         f5:de:da:6f:f0:11:15:90:4f:5a:52:10:81:68:ce:aa:10:b0:
         09:60:97:9e:c4:4d:d0:46:b9:64:4b:11:49:b2:13:09:62:dd:
         83:4c
-----BEGIN CERTIFICATE-----
MIICrjCCAhegAwIBAgIFA1kUZXQwDQYJKoZIhvcNAQEFBQAwgaExCzAJBgNVBAYT
AlVTMRMwEQYDVQQIEwpDYWxpZm9ybmlhMRMwEQYDVQQHEwpEdW1teSBDaXR5MRsw
GQYDVQQKExJEdW1teSBPcmdhbml6YXRpb24xFzAVBgNVBAsTDkR1bW15IE9yZyBV
bml0MRIwEAYDVQQDEwlkdW1teS5jb20xHjAcBgkqhkiG9w0BCQEWD2R1bW15QGR1
bW15LmNvbTAeFw0xNDEwMjUwMDAwMDBaFw0xNTExMjcwODU4MjhaMGkxCzAJBgNV
BAYTAlVTMRYwFAYDVQQIEw1NYXNzYWNodXNldHRzMRIwEAYDVQQHEwlDYW1icmlk
Z2UxFjAUBgNVBAoTDUh1YlNwb3QsIEluYy4xFjAUBgNVBAMUDSouaHVic3BvdC5j
b20wgZ8wDQYJKoZIhvcNAQEBBQADgY0AMIGJAoGBANDjz3dJzfWX3vcMFvxLT31O
k+kfTuI+qd+kFvX9E4SiLoWZwhlD5rsN7EYUM2bopK+tM22cY9m+4v4XenxQGXpo
rW2vvS5RkNpfFlodA87viui6ZEQdo1dA3NF/RshQZTRtYkCdojQ9QhWsjiyN3qHE
fAujkZlpV3EQ0M++6CBtAgMBAAGjKTAnMCUGA1UdEQQeMByCDSouaHVic3BvdC5j
b22CC2h1YnNwb3QuY29tMA0GCSqGSIb3DQEBBQUAA4GBAF3LSaecAPXJsjBCe+a/
HmRQJw0bdZAKybAB0HetS741kscjl7gTdP1RPTrYtvjvPSBR+i1PnClibIVpXyog
TgHfyRwevvRQZStYQLuTF8wT8k1zeFAOci1DyvXe2m/wERWQT1pSEIFozqoQsAlg
l57ETdBGuWRLEUmyEwli3YNM
-----END CERTIFICATE-----
