Certificate:
    Data:
        Version: 3 (0x2)
        Serial Number:
            02:16:51:11:92
    Signature Algorithm: sha1WithRSAEncryption
        Issuer: C=US, ST=California, L=Dummy City, O=Dummy Organization, OU=Dummy Org Unit, CN=dummy.com/emailAddress=dummy@dummy.com
        Validity
            Not Before: Oct 25 00:00:00 2014 GMT
            Not After : Nov 27 05:52:05 2015 GMT
        Subject: OU=Domain Control Validated, CN=*.dataferb.com
        Subject Public Key Info:
            Public Key Algorithm: rsaEncryption
                Public-Key: (1024 bit)
                Modulus:
                    00:e3:f5:76:13:9b:66:aa:92:45:b5:9d:3a:0c:e9:
                    3f:17:2c:57:6f:68:d2:33:f5:28:b9:82:28:ac:c0:
                    ce:4f:01:9a:7e:e4:58:eb:86:cf:da:b1:28:aa:e6:
                    71:4f:5d:47:7a:d6:85:a3:f8:7a:e7:84:63:b5:0a:
                    ae:52:e3:83:14:16:8b:9c:e1:cd:c4:ee:7c:9e:f5:
                    d1:f0:65:5a:a8:92:f9:b6:36:53:70:23:ec:3d:c0:
                    cf:48:10:95:e8:84:5e:92:96:7a:49:c9:94:b3:6a:
                    9e:3b:13:ad:42:f9:e5:a6:a2:05:09:6c:e8:38:02:
                    19:ff:2c:dc:8c:ac:1f:55:43
                Exponent: 65537 (0x10001)
        X509v3 extensions:
            X509v3 Subject Alternative Name: 
                DNS:*.dataferb.com, DNS:dataferb.com
    Signature Algorithm: sha1WithRSAEncryption
         27:ec:d1:a3:59:b8:21:6b:60:0a:42:6d:52:0c:cf:88:94:c3:
         03:05:bf:33:d8:ba:d5:4d:11:19:23:b8:92:32:20:36:65:0e:
         fb:44:c6:19:41:35:03:8c:a6:94:c6:6a:20:77:3c:51:91:03:
         cd:1f:64:b2:25:16:bc:07:b9:c7:0d:43:97:58:ff:1d:2c:d8:
         99:93:1c:fc:da:b8:37:37:75:6f:d2:44:b9:c5:b2:61:4c:b8:
         96:96:7e:9f:9a:f1:cd:51:16:bc:31:89:d0:1e:55:31:64:9f:
         88:16:80:27:38:b0:8c:05:ec:14:7a:8c:e9:f5:4e:aa:92:33:
         3d:0d
-----BEGIN CERTIFICATE-----
MIICgzCCAeygAwIBAgIFAhZREZIwDQYJKoZIhvcNAQEFBQAwgaExCzAJBgNVBAYT
AlVTMRMwEQYDVQQIEwpDYWxpZm9ybmlhMRMwEQYDVQQHEwpEdW1teSBDaXR5MRsw
GQYDVQQKExJEdW1teSBPcmdhbml6YXRpb24xFzAVBgNVBAsTDkR1bW15IE9yZyBV
bml0MRIwEAYDVQQDEwlkdW1teS5jb20xHjAcBgkqhkiG9w0BCQEWD2R1bW15QGR1
bW15LmNvbTAeFw0xNDEwMjUwMDAwMDBaFw0xNTExMjcwNTUyMDVaMDwxITAfBgNV
BAsTGERvbWFpbiBDb250cm9sIFZhbGlkYXRlZDEXMBUGA1UEAxQOKi5kYXRhZmVy
Yi5jb20wgZ8wDQYJKoZIhvcNAQEBBQADgY0AMIGJAoGBAOP1dhObZqqSRbWdOgzp
PxcsV29o0jP1KLmCKKzAzk8Bmn7kWOuGz9qxKKrmcU9dR3rWhaP4eueEY7UKrlLj
gxQWi5zhzcTufJ710fBlWqiS+bY2U3Aj7D3Az0gQleiEXpKWeknJlLNqnjsTrUL5
5aaiBQls6DgCGf8s3IysH1VDAgMBAAGjKzApMCcGA1UdEQQgMB6CDiouZGF0YWZl
cmIuY29tggxkYXRhZmVyYi5jb20wDQYJKoZIhvcNAQEFBQADgYEAJ+zRo1m4IWtg
CkJtUgzPiJTDAwW/M9i61U0RGSO4kjIgNmUO+0TGGUE1A4ymlMZqIHc8UZEDzR9k
siUWvAe5xw1Dl1j/HSzYmZMc/Nq4Nzd1b9JEucWyYUy4lpZ+n5rxzVEWvDGJ0B5V
MWSfiBaAJziwjAXsFHqM6fVOqpIzPQ0=
-----END CERTIFICATE-----
