Certificate:
    Data:
        Version: 3 (0x2)
        Serial Number:
            32:86:41:44:70
    Signature Algorithm: sha1WithRSAEncryption
        Issuer: C=US, ST=California, L=Dummy City, O=Dummy Organization, OU=Dummy Org Unit, CN=dummy.com/emailAddress=dummy@dummy.com
        Validity
            Not Before: Oct 25 00:00:00 2014 GMT
            Not After : Nov 27 08:58:14 2015 GMT
        Subject: C=US, ST=Massachusetts, L=Cambridge, O=HubSpot, Inc., CN=www.hubspot.com
        Subject Public Key Info:
            Public Key Algorithm: rsaEncryption
                Public-Key: (1024 bit)
                Modulus:
                    00:d3:49:38:05:13:c2:bd:82:99:9f:9e:26:48:0d:
                    fa:00:5e:3b:b0:8e:3d:76:61:41:ef:99:0f:78:4a:
                    3c:53:58:44:98:c2:80:70:6a:89:0c:29:cb:ee:ca:
                    9e:5f:81:c0:82:14:de:92:3a:40:69:b0:ad:be:e6:
                    84:08:0c:fc:81:13:34:b0:c9:b9:13:a1:b5:44:89:
                    3f:bb:90:1d:eb:92:4c:3d:6a:0a:e9:cf:32:c3:50:
                    ce:35:ae:9e:48:0c:3d:db:89:57:ea:e6:28:87:4d:
                    6c:dd:5c:91:ca:ac:1d:31:d3:f7:03:b4:c9:99:fe:
                    60:33:5e:25:0a:da:0f:2c:bf
                Exponent: 65537 (0x10001)
        X509v3 extensions:
            X509v3 Subject Alternative Name: 
                DNS:www.hubspot.com, DNS:blog.hubspot.com, DNS:js.hubspot.com, DNS:js.hubspotqa.com, DNS:static.hubspot.com, DNS:static.hubspotqa.com, DNS:static2cdn.hubspot.com, DNS:cdn1.hubspot.com, DNS:sites-auth.hubspot.com, DNS:info.hubspot.com, DNS:cdn1.hubspotqa.com, DNS:cdn2.hubspot.net, DNS:cdn2.hubspotqa.com, DNS:no-cache.hubspot.com, DNS:no-cache.hubspotqa.com, DNS:static2cdn.hubspot.net, DNS:js.hsforms.net, DNS:js.hsforms.com, DNS:js.hs-analytics.net, DNS:js.hs-analytics.com, DNS:js.hscta.net, DNS:js.hscta.com, DNS:static.hsstatic.net, DNS:static.hsstatic.com, DNS:static.hsappstatic.net, DNS:static.hsappstatic.com, DNS:hubspot.com, DNS:designers.hubspot.com, DNS:forms.hubspot.de, DNS:forms.hubspot.com, DNS:login.hubspot.com, DNS:app.hubspot.com, DNS:getsidekick.com, DNS:www.getsidekick.com, DNS:getsignals.com, DNS:www.getsignals.com, DNS:wiki.hubspotcentral.com, DNS:issues.hubspotcentral.com
    Signature Algorithm: sha1WithRSAEncryption
         2a:0b:de:ba:c6:75:fa:7e:60:84:3b:52:f5:05:6b:6e:21:8e:
         a1:3e:c5:b2:e7:e9:ef:fc:48:3b:40:0c:dc:e9:41:2d:16:eb:
         a1:e2:8c:0e:79:47:95:e3:ae:0c:32:aa:5f:5a:cb:68:6d:e0:
         86:0b:fd:0b:b7:82:0a:bf:8d:6f:25:e9:f1:df:ae:25:d7:31:
         68:87:14:78:6f:69:43:3b:20:be:3e:66:47:cd:5d:e4:3a:52:
         70:d1:34:65:dc:e2:ab:e7:8c:4a:8c:29:ec:7b:45:a3:5d:77:
         f8:8d:91:3e:ef:13:c5:85:ff:11:a7:b1:8a:95:9b:8e:23:c8:
         2a:0f
-----BEGIN CERTIFICATE-----
MIIFjDCCBPWgAwIBAgIFMoZBRHAwDQYJKoZIhvcNAQEFBQAwgaExCzAJBgNVBAYT
AlVTMRMwEQYDVQQIEwpDYWxpZm9ybmlhMRMwEQYDVQQHEwpEdW1teSBDaXR5MRsw
GQYDVQQKExJEdW1teSBPcmdhbml6YXRpb24xFzAVBgNVBAsTDkR1bW15IE9yZyBV
bml0MRIwEAYDVQQDEwlkdW1teS5jb20xHjAcBgkqhkiG9w0BCQEWD2R1bW15QGR1
bW15LmNvbTAeFw0xNDEwMjUwMDAwMDBaFw0xNTExMjcwODU4MTRaMGsxCzAJBgNV
BAYTAlVTMRYwFAYDVQQIEw1NYXNzYWNodXNldHRzMRIwEAYDVQQHEwlDYW1icmlk
Z2UxFjAUBgNVBAoTDUh1YlNwb3QsIEluYy4xGDAWBgNVBAMTD3d3dy5odWJzcG90
LmNvbTCBnzANBgkqhkiG9w0BAQEFAAOBjQAwgYkCgYEA00k4BRPCvYKZn54mSA36
AF47sI49dmFB75kPeEo8U1hEmMKAcGqJDCnL7sqeX4HAghTekjpAabCtvuaECAz8
gRM0sMm5E6G1RIk/u5Ad65JMPWoK6c8yw1DONa6eSAw924lX6uYoh01s3VyRyqwd
MdP3A7TJmf5gM14lCtoPLL8CAwEAAaOCAwMwggL/MIIC+wYDVR0RBIIC8jCCAu6C
D3d3dy5odWJzcG90LmNvbYIQYmxvZy5odWJzcG90LmNvbYIOanMuaHVic3BvdC5j
b22CEGpzLmh1YnNwb3RxYS5jb22CEnN0YXRpYy5odWJzcG90LmNvbYIUc3RhdGlj
Lmh1YnNwb3RxYS5jb22CFnN0YXRpYzJjZG4uaHVic3BvdC5jb22CEGNkbjEuaHVi
c3BvdC5jb22CFnNpdGVzLWF1dGguaHVic3BvdC5jb22CEGluZm8uaHVic3BvdC5j
b22CEmNkbjEuaHVic3BvdHFhLmNvbYIQY2RuMi5odWJzcG90Lm5ldIISY2RuMi5o
dWJzcG90cWEuY29tghRuby1jYWNoZS5odWJzcG90LmNvbYIWbm8tY2FjaGUuaHVi
c3BvdHFhLmNvbYIWc3RhdGljMmNkbi5odWJzcG90Lm5ldIIOanMuaHNmb3Jtcy5u
ZXSCDmpzLmhzZm9ybXMuY29tghNqcy5ocy1hbmFseXRpY3MubmV0ghNqcy5ocy1h
bmFseXRpY3MuY29tggxqcy5oc2N0YS5uZXSCDGpzLmhzY3RhLmNvbYITc3RhdGlj
Lmhzc3RhdGljLm5ldIITc3RhdGljLmhzc3RhdGljLmNvbYIWc3RhdGljLmhzYXBw
c3RhdGljLm5ldIIWc3RhdGljLmhzYXBwc3RhdGljLmNvbYILaHVic3BvdC5jb22C
FWRlc2lnbmVycy5odWJzcG90LmNvbYIQZm9ybXMuaHVic3BvdC5kZYIRZm9ybXMu
aHVic3BvdC5jb22CEWxvZ2luLmh1YnNwb3QuY29tgg9hcHAuaHVic3BvdC5jb22C
D2dldHNpZGVraWNrLmNvbYITd3d3LmdldHNpZGVraWNrLmNvbYIOZ2V0c2lnbmFs
cy5jb22CEnd3dy5nZXRzaWduYWxzLmNvbYIXd2lraS5odWJzcG90Y2VudHJhbC5j
b22CGWlzc3Vlcy5odWJzcG90Y2VudHJhbC5jb20wDQYJKoZIhvcNAQEFBQADgYEA
KgveusZ1+n5ghDtS9QVrbiGOoT7Fsufp7/xIO0AM3OlBLRbroeKMDnlHleOuDDKq
X1rLaG3ghgv9C7eCCr+NbyXp8d+uJdcxaIcUeG9pQzsgvj5mR81d5DpScNE0Zdzi
q+eMSowp7HtFo113+I2RPu8TxYX/EaexipWbjiPIKg8=
-----END CERTIFICATE-----
