Certificate:
    Data:
        Version: 3 (0x2)
        Serial Number:
            27:46:48:87:88
    Signature Algorithm: sha1WithRSAEncryption
        Issuer: C=US, ST=California, L=Dummy City, O=Dummy Organization, OU=Dummy Org Unit, CN=dummy.com/emailAddress=dummy@dummy.com
        Validity
            Not Before: Oct 25 00:00:00 2014 GMT
            Not After : Nov 27 09:02:56 2015 GMT
        Subject: OU=Domain Control Validated, CN=*.travis-ci.org
        Subject Public Key Info:
            Public Key Algorithm: rsaEncryption
                Public-Key: (1024 bit)
                Modulus:
                    00:c6:bf:9f:0a:52:6b:07:d4:3b:d3:36:b0:80:89:
                    49:56:db:35:2e:c9:24:f8:de:e9:6f:e9:7e:ac:c3:
                    ff:21:b2:df:3f:cc:5c:30:3d:55:5a:c4:d8:a1:b4:
                    3a:22:d1:81:4c:95:a4:0d:1c:31:01:d6:12:88:17:
                    3b:91:ae:cb:aa:31:76:4d:b5:42:a0:fc:43:b8:5d:
                    c7:95:21:81:db:09:4e:fd:ab:11:d6:e3:85:ff:6c:
                    0a:a9:40:2e:93:1a:4a:b4:6f:27:bc:c6:df:70:ae:
                    2c:e2:62:e2:15:05:de:db:cf:d2:91:fe:7c:cb:dd:
                    62:9b:54:8f:e0:2a:f0:08:a3
                Exponent: 65537 (0x10001)
        X509v3 extensions:
            X509v3 Subject Alternative Name: 
                DNS:*.travis-ci.org, DNS:travis-ci.org
    Signature Algorithm: sha1WithRSAEncryption
         ba:da:34:7c:0f:8f:b3:4d:63:61:05:1f:c3:ad:d4:9b:3c:8c:
         08:00:42:56:f4:96:23:81:5a:fb:78:15:11:20:5f:d9:85:fa:
         c6:10:b4:ee:e3:28:f5:6f:1e:f9:8a:4b:79:c3:74:5b:1b:c5:
         73:97:72:08:f4:b2:2f:2b:15:c5:1e:85:b6:17:05:b1:17:54:
         3f:d9:cf:21:74:43:44:7d:a8:d1:e1:4e:fa:10:44:95:75:10:
         92:84:fc:f1:7b:64:6d:c2:69:18:8c:1c:04:ea:4a:79:61:34:
         f9:4d:ae:47:f0:f1:83:ed:12:fc:cf:31:80:01:a5:75:6f:9a:
         7b:bc
-----BEGIN CERTIFICATE-----
MIIChjCCAe+gAwIBAgIFJ0ZIh4gwDQYJKoZIhvcNAQEFBQAwgaExCzAJBgNVBAYT
AlVTMRMwEQYDVQQIEwpDYWxpZm9ybmlhMRMwEQYDVQQHEwpEdW1teSBDaXR5MRsw
GQYDVQQKExJEdW1teSBPcmdhbml6YXRpb24xFzAVBgNVBAsTDkR1bW15IE9yZyBV
bml0MRIwEAYDVQQDEwlkdW1teS5jb20xHjAcBgkqhkiG9w0BCQEWD2R1bW15QGR1
bW15LmNvbTAeFw0xNDEwMjUwMDAwMDBaFw0xNTExMjcwOTAyNTZaMD0xITAfBgNV
BAsTGERvbWFpbiBDb250cm9sIFZhbGlkYXRlZDEYMBYGA1UEAxQPKi50cmF2aXMt
Y2kub3JnMIGfMA0GCSqGSIb3DQEBAQUAA4GNADCBiQKBgQDGv58KUmsH1DvTNrCA
iUlW2zUuyST43ulv6X6sw/8hst8/zFwwPVVaxNihtDoi0YFMlaQNHDEB1hKIFzuR
rsuqMXZNtUKg/EO4XceVIYHbCU79qxHW44X/bAqpQC6TGkq0bye8xt9wriziYuIV
Bd7bz9KR/nzL3WKbVI/gKvAIowIDAQABoy0wKzApBgNVHREEIjAggg8qLnRyYXZp
cy1jaS5vcmeCDXRyYXZpcy1jaS5vcmcwDQYJKoZIhvcNAQEFBQADgYEAuto0fA+P
s01jYQUfw63UmzyMCABCVvSWI4Fa+3gVESBf2YX6xhC07uMo9W8e+YpLecN0WxvF
c5dyCPSyLysVxR6FthcFsRdUP9nPIXRDRH2o0eFO+hBElXUQkoT88XtkbcJpGIwc
BOpKeWE0+U2uR/Dxg+0S/M8xgAGldW+ae7w=
-----END CERTIFICATE-----
