Certificate:
    Data:
        Version: 3 (0x2)
        Serial Number:
            05:63:65:72:08
    Signature Algorithm: sha1WithRSAEncryption
        Issuer: C=US, ST=California, L=Dummy City, O=Dummy Organization, OU=Dummy Org Unit, CN=dummy.com/emailAddress=dummy@dummy.com
        Validity
            Not Before: Oct 25 00:00:00 2014 GMT
            Not After : Nov 27 07:26:46 2015 GMT
        Subject: C=US, ST=NY, L=New York, O=Stack Exchange, Inc., CN=*.stackexchange.com
        Subject Public Key Info:
            Public Key Algorithm: rsaEncryption
                Public-Key: (1024 bit)
                Modulus:
                    00:a9:6d:62:bf:ae:ab:54:9b:c5:b3:43:f3:ba:b7:
                    74:a1:a3:55:78:66:b5:f4:d4:52:ed:3b:ac:4d:8d:
                    5e:c8:c5:a0:86:e0:b2:c6:bc:dd:3b:57:21:95:d3:
                    b9:f7:d6:20:ec:c9:3e:88:9f:33:a9:c7:52:b2:6d:
                    38:b9:8a:8b:e6:16:49:56:49:45:5d:df:76:79:93:
                    41:32:69:6e:bc:a0:4f:b0:1e:a9:ab:01:e5:18:ec:
                    fe:33:a8:3c:b1:f7:18:4e:18:3b:10:92:f0:09:22:
                    73:2c:c2:10:fb:a6:1b:50:6c:19:54:23:35:b0:fb:
                    0d:64:60:ea:5b:4d:15:74:4b
                Exponent: 65537 (0x10001)
        X509v3 extensions:
            X509v3 Subject Alternative Name: 
                DNS:*.stackexchange.com, DNS:stackexchange.com, DNS:meta.stackexchange.com, DNS:stackoverflow.com, DNS:*.stackoverflow.com, DNS:stackauth.com, DNS:sstatic.net, DNS:*.sstatic.net, DNS:serverfault.com, DNS:meta.superuser.com, DNS:stackapps.com, DNS:openid.stackauth.com, DNS:*.meta.stackexchange.com, DNS:clc.serverfault.com, DNS:meta.serverfault.com, DNS:superuser.com
    Signature Algorithm: sha1WithRSAEncryption
         04:f7:94:a6:4e:43:93:03:b0:6e:33:14:8e:c3:db:e1:2c:1b:
         e6:fd:42:b5:72:63:2a:46:60:ca:32:89:45:09:c4:67:25:64:
         1d:58:85:ae:d8:af:ce:d1:c6:78:7c:84:e3:d9:ea:b1:30:65:
         9b:52:86:7f:6a:79:fa:55:af:bb:d7:f0:01:f4:98:10:70:e7:
         3f:4f:d6:d2:7f:24:43:3a:ab:4d:9c:33:78:fa:7f:5b:12:ca:
         b6:09:64:ac:cf:69:02:79:cc:08:73:4e:93:7f:50:cc:c3:a1:
         96:28:e5:1a:69:a0:fb:7f:83:2e:4e:78:80:98:a7:45:ac:71:
         b3:14
-----BEGIN CERTIFICATE-----
MIIDzjCCAzegAwIBAgIFBWNlcggwDQYJKoZIhvcNAQEFBQAwgaExCzAJBgNVBAYT
AlVTMRMwEQYDVQQIEwpDYWxpZm9ybmlhMRMwEQYDVQQHEwpEdW1teSBDaXR5MRsw
GQYDVQQKExJEdW1teSBPcmdhbml6YXRpb24xFzAVBgNVBAsTDkR1bW15IE9yZyBV
bml0MRIwEAYDVQQDEwlkdW1teS5jb20xHjAcBgkqhkiG9w0BCQEWD2R1bW15QGR1
bW15LmNvbTAeFw0xNDEwMjUwMDAwMDBaFw0xNTExMjcwNzI2NDZaMGoxCzAJBgNV
BAYTAlVTMQswCQYDVQQIEwJOWTERMA8GA1UEBxMITmV3IFlvcmsxHTAbBgNVBAoT
FFN0YWNrIEV4Y2hhbmdlLCBJbmMuMRwwGgYDVQQDFBMqLnN0YWNrZXhjaGFuZ2Uu
Y29tMIGfMA0GCSqGSIb3DQEBAQUAA4GNADCBiQKBgQCpbWK/rqtUm8WzQ/O6t3Sh
o1V4ZrX01FLtO6xNjV7IxaCG4LLGvN07VyGV07n31iDsyT6InzOpx1KybTi5iovm
FklWSUVd33Z5k0EyaW68oE+wHqmrAeUY7P4zqDyx9xhOGDsQkvAJInMswhD7phtQ
bBlUIzWw+w1kYOpbTRV0SwIDAQABo4IBRjCCAUIwggE+BgNVHREEggE1MIIBMYIT
Ki5zdGFja2V4Y2hhbmdlLmNvbYIRc3RhY2tleGNoYW5nZS5jb22CFm1ldGEuc3Rh
Y2tleGNoYW5nZS5jb22CEXN0YWNrb3ZlcmZsb3cuY29tghMqLnN0YWNrb3ZlcmZs
b3cuY29tgg1zdGFja2F1dGguY29tggtzc3RhdGljLm5ldIINKi5zc3RhdGljLm5l
dIIPc2VydmVyZmF1bHQuY29tghJtZXRhLnN1cGVydXNlci5jb22CDXN0YWNrYXBw
cy5jb22CFG9wZW5pZC5zdGFja2F1dGguY29tghgqLm1ldGEuc3RhY2tleGNoYW5n
ZS5jb22CE2NsYy5zZXJ2ZXJmYXVsdC5jb22CFG1ldGEuc2VydmVyZmF1bHQuY29t
gg1zdXBlcnVzZXIuY29tMA0GCSqGSIb3DQEBBQUAA4GBAAT3lKZOQ5MDsG4zFI7D
2+EsG+b9QrVyYypGYMoyiUUJxGclZB1Yha7Yr87Rxnh8hOPZ6rEwZZtShn9qefpV
r7vX8AH0mBBw5z9P1tJ/JEM6q02cM3j6f1sSyrYJZKzPaQJ5zAhzTpN/UMzDoZYo
5RppoPt/gy5OeICYp0WscbMU
-----END CERTIFICATE-----
