Certificate:
    Data:
        Version: 3 (0x2)
        Serial Number:
            29:63:16:03:93
    Signature Algorithm: sha1WithRSAEncryption
        Issuer: C=US, ST=California, L=Dummy City, O=Dummy Organization, OU=Dummy Org Unit, CN=dummy.com/emailAddress=dummy@dummy.com
        Validity
            Not Before: Oct 25 00:00:00 2014 GMT
            Not After : Nov 27 06:06:54 2015 GMT
        Subject: C=US, ST=California, L=Mountain View, O=Google Inc, CN=*.g.doubleclick.net
        Subject Public Key Info:
            Public Key Algorithm: rsaEncryption
                Public-Key: (1024 bit)
                Modulus:
                    00:c4:c7:dc:44:9f:4e:be:2b:55:6c:e4:81:27:f7:
                    cf:d5:03:97:37:89:85:56:ff:a9:aa:1d:5d:a0:aa:
                    32:ec:96:65:aa:7e:b6:04:49:a1:be:20:b7:02:a0:
                    f0:7f:3d:87:3d:a2:e9:46:06:0e:7e:98:f8:9a:36:
                    bb:d4:f0:ad:fb:a6:88:87:e9:f8:1c:97:3f:2e:c3:
                    ae:61:cc:4d:3f:09:f9:56:ca:0b:8b:0e:de:ff:b6:
                    aa:37:9a:e4:99:79:b0:3c:35:90:8d:e6:b8:9d:39:
                    8c:d3:95:44:3e:1a:d9:02:86:6a:00:37:2c:8c:c7:
                    51:2a:27:40:10:47:f4:2d:ed
                Exponent: 65537 (0x10001)
        X509v3 extensions:
            X509v3 Subject Alternative Name: 
                DNS:*.g.doubleclick.net, DNS:*.googleadservices.com, DNS:*.googlesyndication.com, DNS:*.googletagservices.com, DNS:*.invitemedia.com, DNS:g.doubleclick.net, DNS:googleadservices.com, DNS:googlesyndication.com, DNS:googletagservices.com, DNS:media.admob.com
    Signature Algorithm: sha1WithRSAEncryption
         2c:76:99:03:e1:4e:d9:de:9b:00:7a:a9:a0:0b:9a:9a:cf:81:
         c8:21:e6:ad:8d:26:01:8f:a9:23:cc:88:5e:ab:68:66:0a:85:
         2d:41:37:37:4d:92:5a:0a:d9:15:45:88:c2:ba:cb:3e:88:87:
         bd:bb:c8:e0:a2:1f:78:29:6b:0a:b5:1c:e5:76:a9:f1:c6:fb:
         58:6e:4d:d9:79:e0:7f:fb:dc:9f:f2:65:53:2d:63:cf:5c:88:
         2e:d4:99:3c:13:38:7a:60:3b:f3:a5:65:72:0d:26:72:74:e6:
         3e:93:ee:a9:10:21:c4:f8:3e:29:fc:99:58:c9:f6:50:e3:74:
         f3:78
-----BEGIN CERTIFICATE-----
MIIDdTCCAt6gAwIBAgIFKWMWA5MwDQYJKoZIhvcNAQEFBQAwgaExCzAJBgNVBAYT
AlVTMRMwEQYDVQQIEwpDYWxpZm9ybmlhMRMwEQYDVQQHEwpEdW1teSBDaXR5MRsw
GQYDVQQKExJEdW1teSBPcmdhbml6YXRpb24xFzAVBgNVBAsTDkR1bW15IE9yZyBV
bml0MRIwEAYDVQQDEwlkdW1teS5jb20xHjAcBgkqhkiG9w0BCQEWD2R1bW15QGR1
bW15LmNvbTAeFw0xNDEwMjUwMDAwMDBaFw0xNTExMjcwNjA2NTRaMG0xCzAJBgNV
BAYTAlVTMRMwEQYDVQQIEwpDYWxpZm9ybmlhMRYwFAYDVQQHEw1Nb3VudGFpbiBW
aWV3MRMwEQYDVQQKEwpHb29nbGUgSW5jMRwwGgYDVQQDFBMqLmcuZG91YmxlY2xp
Y2submV0MIGfMA0GCSqGSIb3DQEBAQUAA4GNADCBiQKBgQDEx9xEn06+K1Vs5IEn
98/VA5c3iYVW/6mqHV2gqjLslmWqfrYESaG+ILcCoPB/PYc9oulGBg5+mPiaNrvU
8K37poiH6fgclz8uw65hzE0/CflWyguLDt7/tqo3muSZebA8NZCN5ridOYzTlUQ+
GtkChmoANyyMx1EqJ0AQR/Qt7QIDAQABo4HrMIHoMIHlBgNVHREEgd0wgdqCEyou
Zy5kb3VibGVjbGljay5uZXSCFiouZ29vZ2xlYWRzZXJ2aWNlcy5jb22CFyouZ29v
Z2xlc3luZGljYXRpb24uY29tghcqLmdvb2dsZXRhZ3NlcnZpY2VzLmNvbYIRKi5p
bnZpdGVtZWRpYS5jb22CEWcuZG91YmxlY2xpY2submV0ghRnb29nbGVhZHNlcnZp
Y2VzLmNvbYIVZ29vZ2xlc3luZGljYXRpb24uY29tghVnb29nbGV0YWdzZXJ2aWNl
cy5jb22CD21lZGlhLmFkbW9iLmNvbTANBgkqhkiG9w0BAQUFAAOBgQAsdpkD4U7Z
3psAeqmgC5qaz4HIIeatjSYBj6kjzIheq2hmCoUtQTc3TZJaCtkVRYjCuss+iIe9
u8jgoh94KWsKtRzldqnxxvtYbk3ZeeB/+9yf8mVTLWPPXIgu1Jk8Ezh6YDvzpWVy
DSZydOY+k+6pECHE+D4p/JlYyfZQ43TzeA==
-----END CERTIFICATE-----
