Certificate:
    Data:
        Version: 3 (0x2)
        Serial Number:
            42:22:40:19:25
    Signature Algorithm: sha1WithRSAEncryption
        Issuer: C=US, ST=California, L=Dummy City, O=Dummy Organization, OU=Dummy Org Unit, CN=dummy.com/emailAddress=dummy@dummy.com
        Validity
            Not Before: Oct 25 00:00:00 2014 GMT
            Not After : Nov 27 08:59:34 2015 GMT
        Subject: OU=GT40876434, CN=*.npmjs.com
        Subject Public Key Info:
            Public Key Algorithm: rsaEncryption
                Public-Key: (1024 bit)
                Modulus:
                    00:cb:1d:bd:29:11:2c:2d:a0:e5:3c:8a:28:10:46:
                    78:dc:13:2b:33:20:43:69:a5:54:b0:55:80:ef:ce:
                    9c:4b:2a:8e:fc:2d:92:c8:63:42:63:1c:31:23:c3:
                    23:a9:a4:96:d9:36:19:70:80:35:50:a6:ba:c3:f7:
                    69:be:9f:c7:34:f0:c5:6b:be:ab:f4:d3:11:da:1f:
                    99:7a:97:ef:7a:52:3c:a8:1a:53:c9:33:96:5b:2b:
                    76:81:8a:f5:0e:88:5f:65:c5:d7:17:82:87:47:9c:
                    43:0d:78:ee:c1:2f:37:13:8a:ab:7e:f5:4b:03:15:
                    d4:23:a1:0e:7d:c3:bf:92:f9
                Exponent: 65537 (0x10001)
        X509v3 extensions:
            X509v3 Subject Alternative Name: 
                DNS:*.npmjs.com, DNS:npmjs.com
    Signature Algorithm: sha1WithRSAEncryption
         6c:84:0a:58:8f:43:39:e3:35:3f:f5:71:fd:27:3a:b3:74:29:
         79:4d:22:4c:cb:0c:5b:de:2b:01:d0:a5:a6:7a:a9:ef:fb:26:
         c1:b1:ef:ab:26:41:b2:c2:62:15:39:39:f1:fe:2c:fd:c8:7c:
         a9:de:8f:11:66:f4:b7:53:0a:1b:61:62:74:0d:6f:4e:ed:1f:
         2c:ba:9d:50:f0:92:60:e3:f3:0e:71:35:07:65:90:e1:8a:21:
         15:25:3b:97:27:42:76:db:c1:8d:b2:67:cc:b1:ad:c7:92:80:
         59:c5:95:50:43:57:f1:41:b9:1e:f1:31:1b:ea:f6:63:54:34:
         be:ed
-----BEGIN CERTIFICATE-----
MIICbDCCAdWgAwIBAgIFQiJAGSUwDQYJKoZIhvcNAQEFBQAwgaExCzAJBgNVBAYT
AlVTMRMwEQYDVQQIEwpDYWxpZm9ybmlhMRMwEQYDVQQHEwpEdW1teSBDaXR5MRsw
GQYDVQQKExJEdW1teSBPcmdhbml6YXRpb24xFzAVBgNVBAsTDkR1bW15IE9yZyBV
bml0MRIwEAYDVQQDEwlkdW1teS5jb20xHjAcBgkqhkiG9w0BCQEWD2R1bW15QGR1
bW15LmNvbTAeFw0xNDEwMjUwMDAwMDBaFw0xNTExMjcwODU5MzRaMCsxEzARBgNV
BAsTCkdUNDA4NzY0MzQxFDASBgNVBAMUCyoubnBtanMuY29tMIGfMA0GCSqGSIb3
DQEBAQUAA4GNADCBiQKBgQDLHb0pESwtoOU8iigQRnjcEyszIENppVSwVYDvzpxL
Ko78LZLIY0JjHDEjwyOppJbZNhlwgDVQprrD92m+n8c08MVrvqv00xHaH5l6l+96
UjyoGlPJM5ZbK3aBivUOiF9lxdcXgodHnEMNeO7BLzcTiqt+9UsDFdQjoQ59w7+S
+QIDAQABoyUwIzAhBgNVHREEGjAYggsqLm5wbWpzLmNvbYIJbnBtanMuY29tMA0G
CSqGSIb3DQEBBQUAA4GBAGyECliPQznjNT/1cf0nOrN0KXlNIkzLDFveKwHQpaZ6
qe/7JsGx76smQbLCYhU5OfH+LP3IfKnejxFm9LdTChthYnQNb07tHyy6nVDwkmDj
8w5xNQdlkOGKIRUlO5cnQnbbwY2yZ8yxrceSgFnFlVBDV/FBuR7xMRvq9mNUNL7t
-----END CERTIFICATE-----
