Certificate:
    Data:
        Version: 3 (0x2)
        Serial Number:
            07:21:42:49:49
    Signature Algorithm: sha1WithRSAEncryption
        Issuer: C=US, ST=California, L=Dummy City, O=Dummy Organization, OU=Dummy Org Unit, CN=dummy.com/emailAddress=dummy@dummy.com
        Validity
            Not Before: Oct 25 00:00:00 2014 GMT
            Not After : Nov 27 09:17:28 2015 GMT
        Subject: OU=GT58108528, CN=*.gaug.es
        Subject Public Key Info:
            Public Key Algorithm: rsaEncryption
                Public-Key: (1024 bit)
                Modulus:
                    00:b9:8c:0f:30:a6:bf:7c:55:4f:c8:58:f2:df:bc:
                    85:79:51:d2:3b:90:91:14:a7:05:0b:b7:13:6a:08:
                    65:45:71:41:9f:57:69:d9:e5:10:86:3e:7d:9f:b5:
                    07:3b:05:ec:a5:b4:bf:50:89:43:d4:09:29:46:ab:
                    49:36:9d:49:6a:e9:33:c1:66:54:c4:0e:02:ce:38:
                    e5:87:ab:6d:f6:1e:d1:68:e7:46:55:99:f1:67:be:
                    3f:88:1d:ac:29:13:eb:c4:eb:fe:09:ee:dd:e8:69:
                    79:fe:08:d3:1d:4f:9a:fd:01:84:c1:63:08:a8:b2:
                    16:11:c9:7b:92:af:b6:19:3d
                Exponent: 65537 (0x10001)
        X509v3 extensions:
            X509v3 Subject Alternative Name: 
                DNS:*.gaug.es, DNS:gaug.es
    Signature Algorithm: sha1WithRSAEncryption
         7e:3a:2f:f0:e1:71:1a:68:2b:26:75:02:09:ee:f5:d5:8f:fd:
         50:0c:a9:fb:15:c1:2f:9d:0a:16:4e:b1:21:d9:25:75:80:8f:
         de:bb:1d:fd:a2:c8:58:e8:98:74:ea:a8:94:b2:7d:bb:05:d4:
         28:f1:30:cd:19:bb:37:15:34:de:71:99:84:9a:9b:25:f9:5c:
         5a:d6:19:5d:4b:2d:23:0a:a8:c7:99:44:c7:d4:87:5c:01:13:
         96:5a:9a:a0:ba:95:3a:26:c4:de:41:ec:e5:1d:fe:d0:bc:cc:
         13:f3:b8:96:5b:81:97:62:df:b0:a8:6f:f1:0d:ea:84:08:8c:
         66:cd
-----BEGIN CERTIFICATE-----
MIICZjCCAc+gAwIBAgIFByFCSUkwDQYJKoZIhvcNAQEFBQAwgaExCzAJBgNVBAYT
AlVTMRMwEQYDVQQIEwpDYWxpZm9ybmlhMRMwEQYDVQQHEwpEdW1teSBDaXR5MRsw
GQYDVQQKExJEdW1teSBPcmdhbml6YXRpb24xFzAVBgNVBAsTDkR1bW15IE9yZyBV
bml0MRIwEAYDVQQDEwlkdW1teS5jb20xHjAcBgkqhkiG9w0BCQEWD2R1bW15QGR1
bW15LmNvbTAeFw0xNDEwMjUwMDAwMDBaFw0xNTExMjcwOTE3MjhaMCkxEzARBgNV
BAsTCkdUNTgxMDg1MjgxEjAQBgNVBAMUCSouZ2F1Zy5lczCBnzANBgkqhkiG9w0B
AQEFAAOBjQAwgYkCgYEAuYwPMKa/fFVPyFjy37yFeVHSO5CRFKcFC7cTaghlRXFB
n1dp2eUQhj59n7UHOwXspbS/UIlD1AkpRqtJNp1JaukzwWZUxA4Czjjlh6tt9h7R
aOdGVZnxZ74/iB2sKRPrxOv+Ce7d6Gl5/gjTHU+a/QGEwWMIqLIWEcl7kq+2GT0C
AwEAAaMhMB8wHQYDVR0RBBYwFIIJKi5nYXVnLmVzggdnYXVnLmVzMA0GCSqGSIb3
DQEBBQUAA4GBAH46L/DhcRpoKyZ1Agnu9dWP/VAMqfsVwS+dChZOsSHZJXWAj967
Hf2iyFjomHTqqJSyfbsF1CjxMM0ZuzcVNN5xmYSamyX5XFrWGV1LLSMKqMeZRMfU
h1wBE5ZamqC6lTomxN5B7OUd/tC8zBPzuJZbgZdi37Cob/EN6oQIjGbN
-----END CERTIFICATE-----
