Certificate:
    Data:
        Version: 3 (0x2)
        Serial Number:
            17:55:64:51:29
    Signature Algorithm: sha1WithRSAEncryption
        Issuer: C=US, ST=California, L=Dummy City, O=Dummy Organization, OU=Dummy Org Unit, CN=dummy.com/emailAddress=dummy@dummy.com
        Validity
            Not Before: Oct 25 00:00:00 2014 GMT
            Not After : Nov 27 09:45:33 2015 GMT
        Subject: C=US, ST=California, L=San Francisco, O=Fastly, Inc., CN=www.github.com
        Subject Public Key Info:
            Public Key Algorithm: rsaEncryption
                Public-Key: (1024 bit)
                Modulus:
                    00:ae:63:41:b4:16:4d:c0:f5:3a:a3:92:f1:70:e0:
                    7b:7f:6e:61:66:88:35:f6:63:21:bd:4e:5f:09:be:
                    1e:9d:10:29:f2:0e:8f:1f:7f:a0:4c:59:5b:ea:a2:
                    cb:4f:90:35:be:db:18:4f:11:c4:e5:23:c7:65:34:
                    df:69:6e:52:0a:76:2f:5b:09:39:82:90:3e:b4:92:
                    63:98:5b:a4:9f:46:81:dd:da:68:16:df:c7:ab:9c:
                    ca:26:2a:cd:fc:e4:e7:9e:83:77:b3:90:a7:8d:e5:
                    fa:00:d5:14:14:1d:51:3c:fa:74:4c:f6:52:04:7e:
                    ca:bb:1e:c9:12:b7:1a:32:23
                Exponent: 65537 (0x10001)
        X509v3 extensions:
            X509v3 Subject Alternative Name: 
                DNS:www.github.com, DNS:*.github.com, DNS:*.github.io, DNS:*.githubusercontent.com
    Signature Algorithm: sha1WithRSAEncryption
         ae:b2:6f:aa:b6:c1:0a:7d:70:c7:04:89:94:e9:25:8d:fd:12:
         0b:0b:29:ec:bc:f7:6c:5e:ee:b1:4c:c3:87:18:23:2d:31:0e:
         06:8d:c8:61:34:c7:7c:ec:65:3f:99:a9:06:96:b8:52:07:3e:
         0a:81:38:b4:95:f9:1d:3c:f9:e3:b4:af:cd:0c:1e:63:2e:cb:
         d1:27:f6:d1:dc:ed:70:a3:42:fe:0b:cd:05:d8:2b:99:02:72:
         aa:1f:f9:ab:14:02:e5:8f:5b:45:f5:6e:8f:8d:ca:28:e7:d4:
         b1:d6:d5:7b:1e:98:19:dc:72:50:60:13:78:40:de:74:03:3d:
         9c:9b
-----BEGIN CERTIFICATE-----
MIIC1zCCAkCgAwIBAgIFF1VkUSkwDQYJKoZIhvcNAQEFBQAwgaExCzAJBgNVBAYT
AlVTMRMwEQYDVQQIEwpDYWxpZm9ybmlhMRMwEQYDVQQHEwpEdW1teSBDaXR5MRsw
GQYDVQQKExJEdW1teSBPcmdhbml6YXRpb24xFzAVBgNVBAsTDkR1bW15IE9yZyBV
bml0MRIwEAYDVQQDEwlkdW1teS5jb20xHjAcBgkqhkiG9w0BCQEWD2R1bW15QGR1
bW15LmNvbTAeFw0xNDEwMjUwMDAwMDBaFw0xNTExMjcwOTQ1MzNaMGoxCzAJBgNV
BAYTAlVTMRMwEQYDVQQIEwpDYWxpZm9ybmlhMRYwFAYDVQQHEw1TYW4gRnJhbmNp
c2NvMRUwEwYDVQQKEwxGYXN0bHksIEluYy4xFzAVBgNVBAMTDnd3dy5naXRodWIu
Y29tMIGfMA0GCSqGSIb3DQEBAQUAA4GNADCBiQKBgQCuY0G0Fk3A9TqjkvFw4Ht/
bmFmiDX2YyG9Tl8Jvh6dECnyDo8ff6BMWVvqostPkDW+2xhPEcTlI8dlNN9pblIK
di9bCTmCkD60kmOYW6SfRoHd2mgW38ernMomKs385Oeeg3ezkKeN5foA1RQUHVE8
+nRM9lIEfsq7HskStxoyIwIDAQABo1EwTzBNBgNVHREERjBEgg53d3cuZ2l0aHVi
LmNvbYIMKi5naXRodWIuY29tggsqLmdpdGh1Yi5pb4IXKi5naXRodWJ1c2VyY29u
dGVudC5jb20wDQYJKoZIhvcNAQEFBQADgYEArrJvqrbBCn1wxwSJlOkljf0SCwsp
7Lz3bF7usUzDhxgjLTEOBo3IYTTHfOxlP5mpBpa4Ugc+CoE4tJX5HTz547SvzQwe
Yy7L0Sf20dztcKNC/gvNBdgrmQJyqh/5qxQC5Y9bRfVuj43KKOfUsdbVex6YGdxy
UGATeEDedAM9nJs=
-----END CERTIFICATE-----
