Certificate:
    Data:
        Version: 3 (0x2)
        Serial Number:
            17:63:64:72:01
    Signature Algorithm: sha1WithRSAEncryption
        Issuer: C=US, ST=California, L=Dummy City, O=Dummy Organization, OU=Dummy Org Unit, CN=dummy.com/emailAddress=dummy@dummy.com
        Validity
            Not Before: Oct 25 00:00:00 2014 GMT
            Not After : Nov 27 09:17:28 2015 GMT
        Subject: C=US, ST=Washington, L=Seattle, O=Amazon.com Inc., CN=*.s3.amazonaws.com
        Subject Public Key Info:
            Public Key Algorithm: rsaEncryption
                Public-Key: (1024 bit)
                Modulus:
                    00:de:de:f2:f3:cc:cc:2a:68:a1:e0:66:f7:7a:59:
                    ee:5d:87:20:cf:40:b7:73:d8:c1:24:22:98:73:6e:
                    1d:f5:e9:c4:05:1d:72:4c:22:94:cf:ab:02:39:3d:
                    78:f9:91:6b:5d:13:ec:81:71:59:dd:bc:3e:7a:2a:
                    7b:9f:06:7d:fd:7f:49:72:1e:99:66:a7:26:04:39:
                    8e:6f:99:e5:eb:9d:c3:e1:e5:5a:3b:61:73:5f:72:
                    ea:ca:26:cf:d5:18:d3:8d:51:10:b4:5e:aa:cb:91:
                    9a:fa:00:86:9c:99:49:4d:d5:c6:e2:65:96:62:59:
                    33:72:38:a2:07:3e:f5:6a:55
                Exponent: 65537 (0x10001)
        X509v3 extensions:
            X509v3 Subject Alternative Name: 
                DNS:*.s3.amazonaws.com, DNS:s3.amazonaws.com
    Signature Algorithm: sha1WithRSAEncryption
         aa:04:62:18:22:36:82:4d:b4:c7:82:8a:5d:78:4d:a5:f9:ec:
         e2:9c:fe:0f:79:77:55:d3:e7:df:44:a8:cb:34:27:7c:c5:a4:
         09:3f:0a:83:bc:2e:99:35:32:3d:22:17:be:b4:2a:e1:23:fb:
         2b:8c:e0:8f:28:30:f9:ee:2e:3e:09:7c:7d:f5:96:2e:74:9d:
         2f:b4:42:98:42:04:3e:bc:5a:12:23:0e:7e:4d:38:ce:54:d8:
         aa:d1:c4:3a:61:81:b1:ba:22:d1:44:fd:3f:f8:ae:5c:99:71:
         40:b9:25:d3:67:ea:05:45:1a:60:cc:4b:d5:c4:6d:80:23:25:
         47:43
-----BEGIN CERTIFICATE-----
MIICujCCAiOgAwIBAgIFF2NkcgEwDQYJKoZIhvcNAQEFBQAwgaExCzAJBgNVBAYT
AlVTMRMwEQYDVQQIEwpDYWxpZm9ybmlhMRMwEQYDVQQHEwpEdW1teSBDaXR5MRsw
GQYDVQQKExJEdW1teSBPcmdhbml6YXRpb24xFzAVBgNVBAsTDkR1bW15IE9yZyBV
bml0MRIwEAYDVQQDEwlkdW1teS5jb20xHjAcBgkqhkiG9w0BCQEWD2R1bW15QGR1
bW15LmNvbTAeFw0xNDEwMjUwMDAwMDBaFw0xNTExMjcwOTE3MjhaMGsxCzAJBgNV
BAYTAlVTMRMwEQYDVQQIEwpXYXNoaW5ndG9uMRAwDgYDVQQHEwdTZWF0dGxlMRgw
FgYDVQQKEw9BbWF6b24uY29tIEluYy4xGzAZBgNVBAMUEiouczMuYW1hem9uYXdz
LmNvbTCBnzANBgkqhkiG9w0BAQEFAAOBjQAwgYkCgYEA3t7y88zMKmih4Gb3elnu
XYcgz0C3c9jBJCKYc24d9enEBR1yTCKUz6sCOT14+ZFrXRPsgXFZ3bw+eip7nwZ9
/X9Jch6ZZqcmBDmOb5nl653D4eVaO2FzX3LqyibP1RjTjVEQtF6qy5Ga+gCGnJlJ
TdXG4mWWYlkzcjiiBz71alUCAwEAAaMzMDEwLwYDVR0RBCgwJoISKi5zMy5hbWF6
b25hd3MuY29tghBzMy5hbWF6b25hd3MuY29tMA0GCSqGSIb3DQEBBQUAA4GBAKoE
YhgiNoJNtMeCil14TaX57OKc/g95d1XT599EqMs0J3zFpAk/CoO8Lpk1Mj0iF760
KuEj+yuM4I8oMPnuLj4JfH31li50nS+0QphCBD68WhIjDn5NOM5U2KrRxDphgbG6
ItFE/T/4rlyZcUC5JdNn6gVFGmDMS9XEbYAjJUdD
-----END CERTIFICATE-----
