Certificate:
    Data:
        Version: 3 (0x2)
        Serial Number:
            24:36:59:11:89
    Signature Algorithm: sha1WithRSAEncryption
        Issuer: C=US, ST=California, L=Dummy City, O=Dummy Organization, OU=Dummy Org Unit, CN=dummy.com/emailAddress=dummy@dummy.com
        Validity
            Not Before: Oct 25 00:00:00 2014 GMT
            Not After : Nov 27 05:52:37 2015 GMT
        Subject: C=AU, ST=Some-State, O=Internet Widgits Pty Ltd, CN=*.keyless.io
        Subject Public Key Info:
            Public Key Algorithm: rsaEncryption
                Public-Key: (1024 bit)
                Modulus:
                    00:f4:9e:ed:a3:14:58:1d:58:c8:c2:d1:8f:f0:ae:
                    72:e0:0c:68:15:21:ea:ef:7d:b5:38:2d:e5:62:d3:
                    d4:a9:b0:d2:5a:d6:e4:19:2c:33:5b:a8:07:4f:09:
                    fb:16:bd:29:5c:b8:a3:4c:5d:bf:63:8e:49:d6:2a:
                    f2:48:aa:3d:4a:bb:a9:14:ff:3a:79:48:54:fe:f7:
                    82:fb:cf:f1:94:45:c1:d9:3b:ab:4c:73:10:a8:13:
                    f3:34:cc:77:5b:8b:a8:7a:6b:76:72:5d:3b:f9:59:
                    d3:3a:57:e7:ae:21:54:38:f6:10:28:21:4c:99:b4:
                    2f:ed:63:a0:a5:32:20:25:1b
                Exponent: 65537 (0x10001)
        X509v3 extensions:
            X509v3 Subject Alternative Name: 
                DNS:*.keyless.io, DNS:keyless.io
    Signature Algorithm: sha1WithRSAEncryption
         9e:ee:0b:f5:11:b7:64:6b:ea:4d:96:7c:2b:00:01:b0:b6:ab:
         18:2e:a1:8d:9b:b0:0c:17:42:c2:f4:b5:5e:e9:9c:00:3c:c4:
         63:47:e4:35:a0:a5:dd:80:8b:e4:03:9a:be:be:0a:69:04:db:
         20:d1:4b:11:a9:f2:93:fd:aa:ae:66:01:15:bb:4f:bc:12:a7:
         08:2f:e6:70:6f:d3:f8:86:2a:ff:20:1b:95:c1:be:41:73:52:
         ef:6b:5f:39:21:90:a4:7c:c9:58:62:c7:38:6b:e1:4f:d6:b3:
         32:5c:22:a0:00:b0:5e:ec:72:5c:a5:92:6b:f5:59:4e:a2:53:
         19:46
-----BEGIN CERTIFICATE-----
MIICnzCCAgigAwIBAgIFJDZZEYkwDQYJKoZIhvcNAQEFBQAwgaExCzAJBgNVBAYT
AlVTMRMwEQYDVQQIEwpDYWxpZm9ybmlhMRMwEQYDVQQHEwpEdW1teSBDaXR5MRsw
GQYDVQQKExJEdW1teSBPcmdhbml6YXRpb24xFzAVBgNVBAsTDkR1bW15IE9yZyBV
bml0MRIwEAYDVQQDEwlkdW1teS5jb20xHjAcBgkqhkiG9w0BCQEWD2R1bW15QGR1
bW15LmNvbTAeFw0xNDEwMjUwMDAwMDBaFw0xNTExMjcwNTUyMzdaMFwxCzAJBgNV
BAYTAkFVMRMwEQYDVQQIEwpTb21lLVN0YXRlMSEwHwYDVQQKExhJbnRlcm5ldCBX
aWRnaXRzIFB0eSBMdGQxFTATBgNVBAMUDCoua2V5bGVzcy5pbzCBnzANBgkqhkiG
9w0BAQEFAAOBjQAwgYkCgYEA9J7toxRYHVjIwtGP8K5y4AxoFSHq7321OC3lYtPU
qbDSWtbkGSwzW6gHTwn7Fr0pXLijTF2/Y45J1irySKo9SrupFP86eUhU/veC+8/x
lEXB2TurTHMQqBPzNMx3W4uoemt2cl07+VnTOlfnriFUOPYQKCFMmbQv7WOgpTIg
JRsCAwEAAaMnMCUwIwYDVR0RBBwwGoIMKi5rZXlsZXNzLmlvggprZXlsZXNzLmlv
MA0GCSqGSIb3DQEBBQUAA4GBAJ7uC/URt2Rr6k2WfCsAAbC2qxguoY2bsAwXQsL0
tV7pnAA8xGNH5DWgpd2Ai+QDmr6+CmkE2yDRSxGp8pP9qq5mARW7T7wSpwgv5nBv
0/iGKv8gG5XBvkFzUu9rXzkhkKR8yVhixzhr4U/WszJcIqAAsF7sclylkmv1WU6i
UxlG
-----END CERTIFICATE-----
