Certificate:
    Data:
        Version: 3 (0x2)
        Serial Number:
            11:27:42:96:97
    Signature Algorithm: sha1WithRSAEncryption
        Issuer: C=US, ST=California, L=Dummy City, O=Dummy Organization, OU=Dummy Org Unit, CN=dummy.com/emailAddress=dummy@dummy.com
        Validity
            Not Before: Oct 25 00:00:00 2014 GMT
            Not After : Nov 27 09:32:38 2015 GMT
        Subject: C=US, ST=California, L=Mountain View, O=Google Inc, CN=*.g.doubleclick.net
        Subject Public Key Info:
            Public Key Algorithm: rsaEncryption
                Public-Key: (1024 bit)
                Modulus:
                    00:ca:bf:f0:32:9f:ee:e4:fa:61:87:26:3d:22:bc:
                    36:90:50:d8:1c:75:7c:f2:19:ef:13:18:31:bc:91:
                    80:84:3a:44:0e:90:4a:f6:5c:d5:16:3a:e0:33:5c:
                    b5:aa:75:60:45:3f:c0:89:37:a0:b6:56:11:46:bc:
                    50:ab:96:f4:0a:41:dc:27:d6:b1:e8:14:55:87:6b:
                    b6:38:47:25:69:20:6a:4d:e2:f9:4a:25:67:e3:c8:
                    b3:bc:a7:7f:bd:29:e7:cf:3b:50:05:b8:52:6b:16:
                    af:61:bc:1c:0b:aa:9c:3f:d3:f6:39:67:2e:f0:2b:
                    eb:d6:db:58:ba:fc:ce:83:ab
                Exponent: 65537 (0x10001)
        X509v3 extensions:
            X509v3 Subject Alternative Name: 
                DNS:*.g.doubleclick.net, DNS:*.googleadservices.com, DNS:*.googlesyndication.com, DNS:*.googletagservices.com, DNS:*.invitemedia.com, DNS:g.doubleclick.net, DNS:googleadservices.com, DNS:googlesyndication.com, DNS:googletagservices.com, DNS:media.admob.com
    Signature Algorithm: sha1WithRSAEncryption
         ac:1f:62:89:05:59:af:47:32:b1:26:92:f1:88:8d:c6:34:46:
         db:2e:a7:77:aa:5e:b1:ef:ad:7a:5a:e2:b0:ce:5f:9a:17:e6:
         6c:aa:ed:ee:36:ce:33:cc:5d:be:bf:11:01:1c:7f:ab:0f:83:
         08:9d:c3:ef:da:cd:17:f2:92:73:68:da:48:88:ce:67:99:dd:
         85:92:b8:7a:66:b1:87:8c:e5:1c:6f:5c:00:32:84:2c:91:b2:
         ca:2d:cc:95:00:91:1f:90:24:c3:dd:9f:da:51:83:4a:4a:5d:
         bb:98:cd:05:4c:4f:61:ce:47:70:98:dc:15:ba:28:48:f9:a3:
         5e:54
-----BEGIN CERTIFICATE-----
MIIDdTCCAt6gAwIBAgIFESdClpcwDQYJKoZIhvcNAQEFBQAwgaExCzAJBgNVBAYT
AlVTMRMwEQYDVQQIEwpDYWxpZm9ybmlhMRMwEQYDVQQHEwpEdW1teSBDaXR5MRsw
GQYDVQQKExJEdW1teSBPcmdhbml6YXRpb24xFzAVBgNVBAsTDkR1bW15IE9yZyBV
bml0MRIwEAYDVQQDEwlkdW1teS5jb20xHjAcBgkqhkiG9w0BCQEWD2R1bW15QGR1
bW15LmNvbTAeFw0xNDEwMjUwMDAwMDBaFw0xNTExMjcwOTMyMzhaMG0xCzAJBgNV
BAYTAlVTMRMwEQYDVQQIEwpDYWxpZm9ybmlhMRYwFAYDVQQHEw1Nb3VudGFpbiBW
aWV3MRMwEQYDVQQKEwpHb29nbGUgSW5jMRwwGgYDVQQDFBMqLmcuZG91YmxlY2xp
Y2submV0MIGfMA0GCSqGSIb3DQEBAQUAA4GNADCBiQKBgQDKv/Ayn+7k+mGHJj0i
vDaQUNgcdXzyGe8TGDG8kYCEOkQOkEr2XNUWOuAzXLWqdWBFP8CJN6C2VhFGvFCr
lvQKQdwn1rHoFFWHa7Y4RyVpIGpN4vlKJWfjyLO8p3+9KefPO1AFuFJrFq9hvBwL
qpw/0/Y5Zy7wK+vW21i6/M6DqwIDAQABo4HrMIHoMIHlBgNVHREEgd0wgdqCEyou
Zy5kb3VibGVjbGljay5uZXSCFiouZ29vZ2xlYWRzZXJ2aWNlcy5jb22CFyouZ29v
Z2xlc3luZGljYXRpb24uY29tghcqLmdvb2dsZXRhZ3NlcnZpY2VzLmNvbYIRKi5p
bnZpdGVtZWRpYS5jb22CEWcuZG91YmxlY2xpY2submV0ghRnb29nbGVhZHNlcnZp
Y2VzLmNvbYIVZ29vZ2xlc3luZGljYXRpb24uY29tghVnb29nbGV0YWdzZXJ2aWNl
cy5jb22CD21lZGlhLmFkbW9iLmNvbTANBgkqhkiG9w0BAQUFAAOBgQCsH2KJBVmv
RzKxJpLxiI3GNEbbLqd3ql6x7616WuKwzl+aF+Zsqu3uNs4zzF2+vxEBHH+rD4MI
ncPv2s0X8pJzaNpIiM5nmd2Fkrh6ZrGHjOUcb1wAMoQskbLKLcyVAJEfkCTD3Z/a
UYNKSl27mM0FTE9hzkdwmNwVuihI+aNeVA==
-----END CERTIFICATE-----
