Certificate:
    Data:
        Version: 3 (0x2)
        Serial Number:
            31:73:07:94:00
    Signature Algorithm: sha1WithRSAEncryption
        Issuer: C=US, ST=California, L=Dummy City, O=Dummy Organization, OU=Dummy Org Unit, CN=dummy.com/emailAddress=dummy@dummy.com
        Validity
            Not Before: Oct 25 00:00:00 2014 GMT
            Not After : Nov 27 05:54:52 2015 GMT
        Subject: C=US, ST=California, L=Mountain View, O=Google Inc, CN=*.google.com
        Subject Public Key Info:
            Public Key Algorithm: rsaEncryption
                Public-Key: (1024 bit)
                Modulus:
                    00:c0:a0:10:b8:36:29:29:91:74:0c:e4:bb:15:4f:
                    20:9e:91:6e:3e:1b:eb:6f:70:f7:56:20:bc:23:5d:
                    e4:b0:43:d8:9a:d5:c4:2c:88:99:b4:5c:8c:d8:81:
                    57:2f:2e:ac:f3:4c:5f:ee:78:fe:ee:c1:aa:17:a2:
                    05:8a:5e:e6:d9:55:cc:ac:98:96:5e:d0:a2:68:e9:
                    01:26:32:3a:0d:db:fe:79:af:17:27:a2:8a:6a:60:
                    5e:e8:14:1f:ce:0e:b2:ec:bc:96:47:d1:eb:ec:f4:
                    88:d1:cf:5b:4e:99:e6:93:40:9f:4b:1c:af:49:22:
                    80:9c:a9:45:ee:c2:b0:31:cd
                Exponent: 65537 (0x10001)
        X509v3 extensions:
            X509v3 Subject Alternative Name: 
                DNS:*.google.com, DNS:*.android.com, DNS:*.appengine.google.com, DNS:*.cloud.google.com, DNS:*.google-analytics.com, DNS:*.google.ca, DNS:*.google.cl, DNS:*.google.co.in, DNS:*.google.co.jp, DNS:*.google.co.uk, DNS:*.google.com.ar, DNS:*.google.com.au, DNS:*.google.com.br, DNS:*.google.com.co, DNS:*.google.com.mx, DNS:*.google.com.tr, DNS:*.google.com.vn, DNS:*.google.de, DNS:*.google.es, DNS:*.google.fr, DNS:*.google.hu, DNS:*.google.it, DNS:*.google.nl, DNS:*.google.pl, DNS:*.google.pt, DNS:*.googleadapis.com, DNS:*.googleapis.cn, DNS:*.googlecommerce.com, DNS:*.googlevideo.com, DNS:*.gstatic.cn, DNS:*.gstatic.com, DNS:*.gvt1.com, DNS:*.gvt2.com, DNS:*.metric.gstatic.com, DNS:*.urchin.com, DNS:*.url.google.com, DNS:*.youtube-nocookie.com, DNS:*.youtube.com, DNS:*.youtubeeducation.com, DNS:*.ytimg.com, DNS:android.com, DNS:g.co, DNS:goo.gl, DNS:google-analytics.com, DNS:google.com, DNS:googlecommerce.com, DNS:urchin.com, DNS:youtu.be, DNS:youtube.com, DNS:youtubeeducation.com
    Signature Algorithm: sha1WithRSAEncryption
         8f:e4:73:32:da:08:b2:40:25:5f:d8:c5:15:65:bc:33:e9:9d:
         de:b9:22:d7:5b:1e:14:4d:17:ff:22:8e:b1:db:43:23:81:65:
         21:31:d6:e8:71:4a:77:d9:22:ee:37:9e:16:09:a2:34:a1:79:
         b5:a1:eb:2b:db:03:69:f2:9e:28:66:1c:98:b6:11:dd:e5:78:
         cb:eb:6f:6b:ad:20:71:7e:ab:3d:3f:fc:1c:8e:d2:f0:20:9c:
         4f:0e:13:1f:e9:86:83:6e:5e:c3:22:4e:92:a3:8e:cf:78:ee:
         f2:d3:1e:64:fc:fc:61:a4:f8:14:33:85:b3:88:24:10:b2:2a:
         e7:5d
-----BEGIN CERTIFICATE-----
MIIFsjCCBRugAwIBAgIFMXMHlAAwDQYJKoZIhvcNAQEFBQAwgaExCzAJBgNVBAYT
AlVTMRMwEQYDVQQIEwpDYWxpZm9ybmlhMRMwEQYDVQQHEwpEdW1teSBDaXR5MRsw
GQYDVQQKExJEdW1teSBPcmdhbml6YXRpb24xFzAVBgNVBAsTDkR1bW15IE9yZyBV
bml0MRIwEAYDVQQDEwlkdW1teS5jb20xHjAcBgkqhkiG9w0BCQEWD2R1bW15QGR1
bW15LmNvbTAeFw0xNDEwMjUwMDAwMDBaFw0xNTExMjcwNTU0NTJaMGYxCzAJBgNV
BAYTAlVTMRMwEQYDVQQIEwpDYWxpZm9ybmlhMRYwFAYDVQQHEw1Nb3VudGFpbiBW
aWV3MRMwEQYDVQQKEwpHb29nbGUgSW5jMRUwEwYDVQQDFAwqLmdvb2dsZS5jb20w
gZ8wDQYJKoZIhvcNAQEBBQADgY0AMIGJAoGBAMCgELg2KSmRdAzkuxVPIJ6Rbj4b
629w91YgvCNd5LBD2JrVxCyImbRcjNiBVy8urPNMX+54/u7BqheiBYpe5tlVzKyY
ll7QomjpASYyOg3b/nmvFyeiimpgXugUH84Osuy8lkfR6+z0iNHPW06Z5pNAn0sc
r0kigJypRe7CsDHNAgMBAAGjggMuMIIDKjCCAyYGA1UdEQSCAx0wggMZggwqLmdv
b2dsZS5jb22CDSouYW5kcm9pZC5jb22CFiouYXBwZW5naW5lLmdvb2dsZS5jb22C
EiouY2xvdWQuZ29vZ2xlLmNvbYIWKi5nb29nbGUtYW5hbHl0aWNzLmNvbYILKi5n
b29nbGUuY2GCCyouZ29vZ2xlLmNsgg4qLmdvb2dsZS5jby5pboIOKi5nb29nbGUu
Y28uanCCDiouZ29vZ2xlLmNvLnVrgg8qLmdvb2dsZS5jb20uYXKCDyouZ29vZ2xl
LmNvbS5hdYIPKi5nb29nbGUuY29tLmJygg8qLmdvb2dsZS5jb20uY2+CDyouZ29v
Z2xlLmNvbS5teIIPKi5nb29nbGUuY29tLnRygg8qLmdvb2dsZS5jb20udm6CCyou
Z29vZ2xlLmRlggsqLmdvb2dsZS5lc4ILKi5nb29nbGUuZnKCCyouZ29vZ2xlLmh1
ggsqLmdvb2dsZS5pdIILKi5nb29nbGUubmyCCyouZ29vZ2xlLnBsggsqLmdvb2ds
ZS5wdIISKi5nb29nbGVhZGFwaXMuY29tgg8qLmdvb2dsZWFwaXMuY26CFCouZ29v
Z2xlY29tbWVyY2UuY29tghEqLmdvb2dsZXZpZGVvLmNvbYIMKi5nc3RhdGljLmNu
gg0qLmdzdGF0aWMuY29tggoqLmd2dDEuY29tggoqLmd2dDIuY29tghQqLm1ldHJp
Yy5nc3RhdGljLmNvbYIMKi51cmNoaW4uY29tghAqLnVybC5nb29nbGUuY29tghYq
LnlvdXR1YmUtbm9jb29raWUuY29tgg0qLnlvdXR1YmUuY29tghYqLnlvdXR1YmVl
ZHVjYXRpb24uY29tggsqLnl0aW1nLmNvbYILYW5kcm9pZC5jb22CBGcuY2+CBmdv
by5nbIIUZ29vZ2xlLWFuYWx5dGljcy5jb22CCmdvb2dsZS5jb22CEmdvb2dsZWNv
bW1lcmNlLmNvbYIKdXJjaGluLmNvbYIIeW91dHUuYmWCC3lvdXR1YmUuY29tghR5
b3V0dWJlZWR1Y2F0aW9uLmNvbTANBgkqhkiG9w0BAQUFAAOBgQCP5HMy2giyQCVf
2MUVZbwz6Z3euSLXWx4UTRf/Io6x20MjgWUhMdbocUp32SLuN54WCaI0oXm1oesr
2wNp8p4oZhyYthHd5XjL629rrSBxfqs9P/wcjtLwIJxPDhMf6YaDbl7DIk6So47P
eO7y0x5k/PxhpPgUM4WziCQQsirnXQ==
-----END CERTIFICATE-----
