Certificate:
    Data:
        Version: 3 (0x2)
        Serial Number:
            14:46:38:28:37
    Signature Algorithm: sha1WithRSAEncryption
        Issuer: C=US, ST=California, L=Dummy City, O=Dummy Organization, OU=Dummy Org Unit, CN=dummy.com/emailAddress=dummy@dummy.com
        Validity
            Not Before: Oct 25 00:00:00 2014 GMT
            Not After : Nov 27 06:59:54 2015 GMT
        Subject: C=US, ST=California, L=Mountain View, O=Google Inc, CN=*.google.com
        Subject Public Key Info:
            Public Key Algorithm: rsaEncryption
                Public-Key: (1024 bit)
                Modulus:
                    00:dd:d8:27:fb:32:35:74:25:b3:a7:73:72:68:47:
                    c7:10:02:56:bc:a5:60:6d:ba:a8:47:e5:75:c5:0c:
                    9d:d7:92:65:3c:53:c1:45:5f:78:08:6e:8f:f5:b7:
                    78:24:d6:14:cb:3c:f9:b0:a8:08:67:00:4d:6e:cd:
                    25:4e:38:dc:09:ed:63:9b:5b:a3:0c:8f:52:7c:e2:
                    d5:e9:1c:d1:63:86:30:e7:7f:ef:99:75:d0:f0:02:
                    66:41:de:39:64:5a:8d:8e:e6:6e:f0:9f:62:01:ba:
                    b0:e7:2d:67:25:0b:a6:72:19:f3:87:5b:08:7e:d5:
                    d2:18:3f:66:a2:17:fd:6e:53
                Exponent: 65537 (0x10001)
        X509v3 extensions:
            X509v3 Subject Alternative Name: 
                DNS:*.google.com, DNS:*.android.com, DNS:*.appengine.google.com, DNS:*.cloud.google.com, DNS:*.google-analytics.com, DNS:*.google.ca, DNS:*.google.cl, DNS:*.google.co.in, DNS:*.google.co.jp, DNS:*.google.co.uk, DNS:*.google.com.ar, DNS:*.google.com.au, DNS:*.google.com.br, DNS:*.google.com.co, DNS:*.google.com.mx, DNS:*.google.com.tr, DNS:*.google.com.vn, DNS:*.google.de, DNS:*.google.es, DNS:*.google.fr, DNS:*.google.hu, DNS:*.google.it, DNS:*.google.nl, DNS:*.google.pl, DNS:*.google.pt, DNS:*.googleadapis.com, DNS:*.googleapis.cn, DNS:*.googlecommerce.com, DNS:*.googlevideo.com, DNS:*.gstatic.cn, DNS:*.gstatic.com, DNS:*.gvt1.com, DNS:*.gvt2.com, DNS:*.metric.gstatic.com, DNS:*.urchin.com, DNS:*.url.google.com, DNS:*.youtube-nocookie.com, DNS:*.youtube.com, DNS:*.youtubeeducation.com, DNS:*.ytimg.com, DNS:android.com, DNS:g.co, DNS:goo.gl, DNS:google-analytics.com, DNS:google.com, DNS:googlecommerce.com, DNS:urchin.com, DNS:youtu.be, DNS:youtube.com, DNS:youtubeeducation.com
    Signature Algorithm: sha1WithRSAEncryption
         4a:f1:d0:4b:6f:a6:37:42:79:95:3d:b8:93:30:59:e3:a4:86:
         20:cb:3a:56:6e:47:9c:21:cc:64:7c:48:9f:cd:6d:5c:1f:7b:
         ce:e1:40:6a:62:93:80:76:0a:e5:39:cd:92:72:60:65:9d:a0:
         31:40:77:96:27:6c:ca:c2:ee:56:6c:b0:b0:b0:d4:bc:d0:53:
         79:70:0d:30:c5:a4:04:da:2a:b5:a6:57:93:c0:26:05:5c:4a:
         b4:12:75:02:24:75:67:74:ef:c9:c0:ef:49:a4:b5:4c:54:77:
         81:dd:94:66:63:9b:10:fa:61:0c:e9:4d:81:ec:54:e0:4c:60:
         9f:2c
-----BEGIN CERTIFICATE-----
MIIFsjCCBRugAwIBAgIFFEY4KDcwDQYJKoZIhvcNAQEFBQAwgaExCzAJBgNVBAYT
AlVTMRMwEQYDVQQIEwpDYWxpZm9ybmlhMRMwEQYDVQQHEwpEdW1teSBDaXR5MRsw
GQYDVQQKExJEdW1teSBPcmdhbml6YXRpb24xFzAVBgNVBAsTDkR1bW15IE9yZyBV
bml0MRIwEAYDVQQDEwlkdW1teS5jb20xHjAcBgkqhkiG9w0BCQEWD2R1bW15QGR1
bW15LmNvbTAeFw0xNDEwMjUwMDAwMDBaFw0xNTExMjcwNjU5NTRaMGYxCzAJBgNV
BAYTAlVTMRMwEQYDVQQIEwpDYWxpZm9ybmlhMRYwFAYDVQQHEw1Nb3VudGFpbiBW
aWV3MRMwEQYDVQQKEwpHb29nbGUgSW5jMRUwEwYDVQQDFAwqLmdvb2dsZS5jb20w
gZ8wDQYJKoZIhvcNAQEBBQADgY0AMIGJAoGBAN3YJ/syNXQls6dzcmhHxxACVryl
YG26qEfldcUMndeSZTxTwUVfeAhuj/W3eCTWFMs8+bCoCGcATW7NJU443AntY5tb
owyPUnzi1ekc0WOGMOd/75l10PACZkHeOWRajY7mbvCfYgG6sOctZyULpnIZ84db
CH7V0hg/ZqIX/W5TAgMBAAGjggMuMIIDKjCCAyYGA1UdEQSCAx0wggMZggwqLmdv
b2dsZS5jb22CDSouYW5kcm9pZC5jb22CFiouYXBwZW5naW5lLmdvb2dsZS5jb22C
EiouY2xvdWQuZ29vZ2xlLmNvbYIWKi5nb29nbGUtYW5hbHl0aWNzLmNvbYILKi5n
b29nbGUuY2GCCyouZ29vZ2xlLmNsgg4qLmdvb2dsZS5jby5pboIOKi5nb29nbGUu
Y28uanCCDiouZ29vZ2xlLmNvLnVrgg8qLmdvb2dsZS5jb20uYXKCDyouZ29vZ2xl
LmNvbS5hdYIPKi5nb29nbGUuY29tLmJygg8qLmdvb2dsZS5jb20uY2+CDyouZ29v
Z2xlLmNvbS5teIIPKi5nb29nbGUuY29tLnRygg8qLmdvb2dsZS5jb20udm6CCyou
Z29vZ2xlLmRlggsqLmdvb2dsZS5lc4ILKi5nb29nbGUuZnKCCyouZ29vZ2xlLmh1
ggsqLmdvb2dsZS5pdIILKi5nb29nbGUubmyCCyouZ29vZ2xlLnBsggsqLmdvb2ds
ZS5wdIISKi5nb29nbGVhZGFwaXMuY29tgg8qLmdvb2dsZWFwaXMuY26CFCouZ29v
Z2xlY29tbWVyY2UuY29tghEqLmdvb2dsZXZpZGVvLmNvbYIMKi5nc3RhdGljLmNu
gg0qLmdzdGF0aWMuY29tggoqLmd2dDEuY29tggoqLmd2dDIuY29tghQqLm1ldHJp
Yy5nc3RhdGljLmNvbYIMKi51cmNoaW4uY29tghAqLnVybC5nb29nbGUuY29tghYq
LnlvdXR1YmUtbm9jb29raWUuY29tgg0qLnlvdXR1YmUuY29tghYqLnlvdXR1YmVl
ZHVjYXRpb24uY29tggsqLnl0aW1nLmNvbYILYW5kcm9pZC5jb22CBGcuY2+CBmdv
by5nbIIUZ29vZ2xlLWFuYWx5dGljcy5jb22CCmdvb2dsZS5jb22CEmdvb2dsZWNv
bW1lcmNlLmNvbYIKdXJjaGluLmNvbYIIeW91dHUuYmWCC3lvdXR1YmUuY29tghR5
b3V0dWJlZWR1Y2F0aW9uLmNvbTANBgkqhkiG9w0BAQUFAAOBgQBK8dBLb6Y3QnmV
PbiTMFnjpIYgyzpWbkecIcxkfEifzW1cH3vO4UBqYpOAdgrlOc2ScmBlnaAxQHeW
J2zKwu5WbLCwsNS80FN5cA0wxaQE2iq1pleTwCYFXEq0EnUCJHVndO/JwO9JpLVM
VHeB3ZRmY5sQ+mEM6U2B7FTgTGCfLA==
-----END CERTIFICATE-----
