Certificate:
    Data:
        Version: 3 (0x2)
        Serial Number: 1501786160 (0x59837030)
    Signature Algorithm: sha1WithRSAEncryption
        Issuer: C=US, ST=California, L=Dummy City, O=Dummy Organization, OU=Dummy Org Unit, CN=dummy.com/emailAddress=dummy@dummy.com
        Validity
            Not Before: Oct 25 00:00:00 2014 GMT
            Not After : Nov 27 08:07:13 2015 GMT
        Subject: C=US, ST=CA, L=Menlo Park, O=Facebook, Inc., CN=*.facebook.com
        Subject Public Key Info:
            Public Key Algorithm: rsaEncryption
                Public-Key: (1024 bit)
                Modulus:
                    00:b6:e0:b9:ca:ce:aa:c7:be:45:e0:c9:57:ea:34:
                    69:d6:2d:50:29:5e:3b:c7:4b:be:8f:66:84:c5:39:
                    43:e8:13:bd:22:df:fa:a2:cd:85:75:32:1e:05:b6:
                    b9:be:5b:b0:27:1b:e6:70:6f:e3:54:5f:f5:2f:5f:
                    2a:9e:ad:0f:3d:d8:45:83:60:8d:73:6a:54:04:bc:
                    0a:5c:b9:df:43:e4:61:04:21:d0:cd:17:c1:4c:68:
                    02:0d:7f:d1:02:1c:98:6e:b5:c6:b7:b3:ab:c1:1b:
                    d2:35:e9:aa:de:56:d3:4b:95:b8:69:65:61:a2:a9:
                    36:a4:4a:4a:26:21:d5:bb:41
                Exponent: 65537 (0x10001)
        X509v3 extensions:
            X509v3 Subject Alternative Name: 
                DNS:*.facebook.com, DNS:facebook.com, DNS:*.fbsbx.com, DNS:*.fbcdn.net, DNS:*.xx.fbcdn.net, DNS:*.xy.fbcdn.net, DNS:fb.com, DNS:*.fb.com
    Signature Algorithm: sha1WithRSAEncryption
         3d:16:30:8b:d6:c9:52:51:42:eb:52:89:d0:ee:e9:72:dd:4b:
         70:a8:b5:20:47:d1:de:48:04:61:b5:84:f7:a7:2c:5c:1c:0b:
         68:97:8f:fe:78:23:1e:49:6d:27:2f:56:d5:80:0e:68:f0:ce:
         d2:fa:be:63:12:ef:2f:ac:6d:68:ba:ad:b1:85:36:4a:fb:9d:
         75:a5:7d:f5:33:c4:84:53:38:f6:da:e3:1c:f4:4f:21:f0:9e:
         01:19:5f:42:33:1c:44:7f:f9:a7:af:b4:23:fd:a9:de:58:6b:
         d6:27:d5:8e:f3:da:86:bc:60:93:b3:e2:58:21:0f:90:99:0b:
         3b:ba
-----BEGIN CERTIFICATE-----
MIIC8zCCAlygAwIBAgIEWYNwMDANBgkqhkiG9w0BAQUFADCBoTELMAkGA1UEBhMC
VVMxEzARBgNVBAgTCkNhbGlmb3JuaWExEzARBgNVBAcTCkR1bW15IENpdHkxGzAZ
BgNVBAoTEkR1bW15IE9yZ2FuaXphdGlvbjEXMBUGA1UECxMORHVtbXkgT3JnIFVu
aXQxEjAQBgNVBAMTCWR1bW15LmNvbTEeMBwGCSqGSIb3DQEJARYPZHVtbXlAZHVt
bXkuY29tMB4XDTE0MTAyNTAwMDAwMFoXDTE1MTEyNzA4MDcxM1owYTELMAkGA1UE
BhMCVVMxCzAJBgNVBAgTAkNBMRMwEQYDVQQHEwpNZW5sbyBQYXJrMRcwFQYDVQQK
Ew5GYWNlYm9vaywgSW5jLjEXMBUGA1UEAxQOKi5mYWNlYm9vay5jb20wgZ8wDQYJ
KoZIhvcNAQEBBQADgY0AMIGJAoGBALbgucrOqse+ReDJV+o0adYtUCleO8dLvo9m
hMU5Q+gTvSLf+qLNhXUyHgW2ub5bsCcb5nBv41Rf9S9fKp6tDz3YRYNgjXNqVAS8
Cly530PkYQQh0M0XwUxoAg1/0QIcmG61xrezq8Eb0jXpqt5W00uVuGllYaKpNqRK
SiYh1btBAgMBAAGjdzB1MHMGA1UdEQRsMGqCDiouZmFjZWJvb2suY29tggxmYWNl
Ym9vay5jb22CCyouZmJzYnguY29tggsqLmZiY2RuLm5ldIIOKi54eC5mYmNkbi5u
ZXSCDioueHkuZmJjZG4ubmV0ggZmYi5jb22CCCouZmIuY29tMA0GCSqGSIb3DQEB
BQUAA4GBAD0WMIvWyVJRQutSidDu6XLdS3CotSBH0d5IBGG1hPenLFwcC2iXj/54
Ix5JbScvVtWADmjwztL6vmMS7y+sbWi6rbGFNkr7nXWlffUzxIRTOPba4xz0TyHw
ngEZX0IzHER/+aevtCP9qd5Ya9Yn1Y7z2oa8YJOz4lghD5CZCzu6
-----END CERTIFICATE-----
