Certificate:
    Data:
        Version: 3 (0x2)
        Serial Number:
            18:13:59:07:88
    Signature Algorithm: sha1WithRSAEncryption
        Issuer: C=US, ST=California, L=Dummy City, O=Dummy Organization, OU=Dummy Org Unit, CN=dummy.com/emailAddress=dummy@dummy.com
        Validity
            Not Before: Oct 25 00:00:00 2014 GMT
            Not After : Nov 27 07:04:09 2015 GMT
        Subject: C=US, ST=California, L=Mountain View, O=Google Inc, CN=*.google.com
        Subject Public Key Info:
            Public Key Algorithm: rsaEncryption
                Public-Key: (1024 bit)
                Modulus:
                    00:d7:1f:fe:91:3b:b7:b7:6d:09:2b:0d:77:17:bd:
                    cd:03:3e:aa:fc:0f:d9:f9:62:2c:29:7e:bf:69:d7:
                    02:32:ff:03:99:d4:89:61:7b:91:90:6d:41:d4:b9:
                    31:28:f0:5f:4f:ca:0e:36:75:eb:9c:70:f7:7f:41:
                    95:e4:6d:51:d5:41:f8:11:19:5e:aa:a8:25:ea:67:
                    16:8c:32:a8:3b:51:53:68:9e:92:8c:14:f3:de:66:
                    71:64:07:d1:8e:8d:b2:9f:f0:c5:cd:f0:0c:d5:fc:
                    08:ca:02:0b:c6:84:98:be:49:3b:5f:e7:20:87:46:
                    c0:c7:27:e8:2d:8e:da:2a:b7
                Exponent: 65537 (0x10001)
        X509v3 extensions:
            X509v3 Subject Alternative Name: 
                DNS:*.google.com, DNS:*.android.com, DNS:*.appengine.google.com, DNS:*.cloud.google.com, DNS:*.google-analytics.com, DNS:*.google.ca, DNS:*.google.cl, DNS:*.google.co.in, DNS:*.google.co.jp, DNS:*.google.co.uk, DNS:*.google.com.ar, DNS:*.google.com.au, DNS:*.google.com.br, DNS:*.google.com.co, DNS:*.google.com.mx, DNS:*.google.com.tr, DNS:*.google.com.vn, DNS:*.google.de, DNS:*.google.es, DNS:*.google.fr, DNS:*.google.hu, DNS:*.google.it, DNS:*.google.nl, DNS:*.google.pl, DNS:*.google.pt, DNS:*.googleadapis.com, DNS:*.googleapis.cn, DNS:*.googlecommerce.com, DNS:*.googlevideo.com, DNS:*.gstatic.cn, DNS:*.gstatic.com, DNS:*.gvt1.com, DNS:*.gvt2.com, DNS:*.metric.gstatic.com, DNS:*.urchin.com, DNS:*.url.google.com, DNS:*.youtube-nocookie.com, DNS:*.youtube.com, DNS:*.youtubeeducation.com, DNS:*.ytimg.com, DNS:android.com, DNS:g.co, DNS:goo.gl, DNS:google-analytics.com, DNS:google.com, DNS:googlecommerce.com, DNS:urchin.com, DNS:youtu.be, DNS:youtube.com, DNS:youtubeeducation.com
    Signature Algorithm: sha1WithRSAEncryption
         62:f9:a3:40:85:b0:4c:58:ec:f5:95:a4:4c:a6:ef:d8:91:87:
         e2:67:72:3f:66:31:07:46:b2:4b:31:f4:78:24:e7:b5:0f:af:
         d5:4d:03:17:79:b4:c5:a3:1e:12:b0:55:e5:77:ea:4f:a1:65:
         49:43:a8:d4:a3:39:03:a8:16:68:de:8c:2a:0a:f7:5a:b1:c0:
         e6:f9:8b:30:56:bd:81:3a:79:7f:02:ba:82:67:68:78:06:f0:
         a4:1b:ec:fc:9c:69:65:9e:2c:ca:5e:f5:3f:16:88:a1:fb:b6:
         88:d3:11:03:0a:19:73:44:d1:04:50:cf:6c:08:58:4c:5e:ae:
         63:61
-----BEGIN CERTIFICATE-----
MIIFsjCCBRugAwIBAgIFGBNZB4gwDQYJKoZIhvcNAQEFBQAwgaExCzAJBgNVBAYT
AlVTMRMwEQYDVQQIEwpDYWxpZm9ybmlhMRMwEQYDVQQHEwpEdW1teSBDaXR5MRsw
GQYDVQQKExJEdW1teSBPcmdhbml6YXRpb24xFzAVBgNVBAsTDkR1bW15IE9yZyBV
bml0MRIwEAYDVQQDEwlkdW1teS5jb20xHjAcBgkqhkiG9w0BCQEWD2R1bW15QGR1
bW15LmNvbTAeFw0xNDEwMjUwMDAwMDBaFw0xNTExMjcwNzA0MDlaMGYxCzAJBgNV
BAYTAlVTMRMwEQYDVQQIEwpDYWxpZm9ybmlhMRYwFAYDVQQHEw1Nb3VudGFpbiBW
aWV3MRMwEQYDVQQKEwpHb29nbGUgSW5jMRUwEwYDVQQDFAwqLmdvb2dsZS5jb20w
gZ8wDQYJKoZIhvcNAQEBBQADgY0AMIGJAoGBANcf/pE7t7dtCSsNdxe9zQM+qvwP
2fliLCl+v2nXAjL/A5nUiWF7kZBtQdS5MSjwX0/KDjZ165xw939BleRtUdVB+BEZ
XqqoJepnFowyqDtRU2iekowU895mcWQH0Y6Nsp/wxc3wDNX8CMoCC8aEmL5JO1/n
IIdGwMcn6C2O2iq3AgMBAAGjggMuMIIDKjCCAyYGA1UdEQSCAx0wggMZggwqLmdv
b2dsZS5jb22CDSouYW5kcm9pZC5jb22CFiouYXBwZW5naW5lLmdvb2dsZS5jb22C
EiouY2xvdWQuZ29vZ2xlLmNvbYIWKi5nb29nbGUtYW5hbHl0aWNzLmNvbYILKi5n
b29nbGUuY2GCCyouZ29vZ2xlLmNsgg4qLmdvb2dsZS5jby5pboIOKi5nb29nbGUu
Y28uanCCDiouZ29vZ2xlLmNvLnVrgg8qLmdvb2dsZS5jb20uYXKCDyouZ29vZ2xl
LmNvbS5hdYIPKi5nb29nbGUuY29tLmJygg8qLmdvb2dsZS5jb20uY2+CDyouZ29v
Z2xlLmNvbS5teIIPKi5nb29nbGUuY29tLnRygg8qLmdvb2dsZS5jb20udm6CCyou
Z29vZ2xlLmRlggsqLmdvb2dsZS5lc4ILKi5nb29nbGUuZnKCCyouZ29vZ2xlLmh1
ggsqLmdvb2dsZS5pdIILKi5nb29nbGUubmyCCyouZ29vZ2xlLnBsggsqLmdvb2ds
ZS5wdIISKi5nb29nbGVhZGFwaXMuY29tgg8qLmdvb2dsZWFwaXMuY26CFCouZ29v
Z2xlY29tbWVyY2UuY29tghEqLmdvb2dsZXZpZGVvLmNvbYIMKi5nc3RhdGljLmNu
gg0qLmdzdGF0aWMuY29tggoqLmd2dDEuY29tggoqLmd2dDIuY29tghQqLm1ldHJp
Yy5nc3RhdGljLmNvbYIMKi51cmNoaW4uY29tghAqLnVybC5nb29nbGUuY29tghYq
LnlvdXR1YmUtbm9jb29raWUuY29tgg0qLnlvdXR1YmUuY29tghYqLnlvdXR1YmVl
ZHVjYXRpb24uY29tggsqLnl0aW1nLmNvbYILYW5kcm9pZC5jb22CBGcuY2+CBmdv
by5nbIIUZ29vZ2xlLWFuYWx5dGljcy5jb22CCmdvb2dsZS5jb22CEmdvb2dsZWNv
bW1lcmNlLmNvbYIKdXJjaGluLmNvbYIIeW91dHUuYmWCC3lvdXR1YmUuY29tghR5
b3V0dWJlZWR1Y2F0aW9uLmNvbTANBgkqhkiG9w0BAQUFAAOBgQBi+aNAhbBMWOz1
laRMpu/YkYfiZ3I/ZjEHRrJLMfR4JOe1D6/VTQMXebTFox4SsFXld+pPoWVJQ6jU
ozkDqBZo3owqCvdascDm+YswVr2BOnl/ArqCZ2h4BvCkG+z8nGllnizKXvU/Foih
+7aI0xEDChlzRNEEUM9sCFhMXq5jYQ==
-----END CERTIFICATE-----
