Certificate:
    Data:
        Version: 3 (0x2)
        Serial Number:
            27:56:38:16:80
    Signature Algorithm: sha1WithRSAEncryption
        Issuer: C=US, ST=California, L=Dummy City, O=Dummy Organization, OU=Dummy Org Unit, CN=dummy.com/emailAddress=dummy@dummy.com
        Validity
            Not Before: Oct 25 00:00:00 2014 GMT
            Not After : Nov 27 05:51:43 2015 GMT
        Subject: C=US, ST=California, L=Mountain View, O=Google Inc, CN=*.googleapis.com
        Subject Public Key Info:
            Public Key Algorithm: rsaEncryption
                Public-Key: (1024 bit)
                Modulus:
                    00:c4:e1:71:2b:9d:44:b1:37:74:78:72:1c:d8:29:
                    ae:0d:8a:3a:9c:72:9a:62:19:4d:c6:ca:10:e0:fa:
                    b1:38:4a:a0:d1:04:a7:81:84:d0:b5:3a:bd:31:91:
                    84:51:d7:23:48:34:dd:0a:a7:db:d7:4a:31:0f:67:
                    82:ca:c4:c4:46:83:4a:e7:10:54:89:ed:cf:9d:89:
                    7c:22:9c:02:48:4f:75:15:66:43:4f:8e:c7:b0:6d:
                    3c:70:d1:37:85:c8:46:d0:ed:85:e5:66:95:a9:46:
                    95:c6:52:05:f5:f9:4c:1f:3d:7b:68:3d:61:5c:7c:
                    cb:ef:1c:1a:10:cc:39:2c:2b
                Exponent: 65537 (0x10001)
        X509v3 extensions:
            X509v3 Subject Alternative Name: 
                DNS:*.googleapis.com, DNS:*.cloudendpointsapis.com, DNS:cloudendpointsapis.com, DNS:googleapis.com
    Signature Algorithm: sha1WithRSAEncryption
         9f:ab:45:ea:a1:c7:3a:45:bc:9c:ad:d6:6e:28:22:f2:04:74:
         26:57:90:02:cf:7a:b6:a1:0f:bc:da:9d:04:90:d8:ee:13:6d:
         bd:a9:01:6b:42:20:33:d6:00:51:1a:24:fd:2f:f4:f2:3e:32:
         cf:c2:15:30:8a:58:f5:06:da:05:cc:c2:5b:16:81:60:15:55:
         bd:73:60:1b:ee:75:54:34:4d:46:e4:4c:e8:15:e8:18:f7:1c:
         87:44:ac:39:3e:3c:ad:b1:2b:70:84:1d:46:3c:b9:d8:8c:66:
         ee:2b:4c:78:2c:b0:50:06:fe:fb:7a:63:44:5e:e4:59:45:13:
         58:b4
-----BEGIN CERTIFICATE-----
MIIC5zCCAlCgAwIBAgIFJ1Y4FoAwDQYJKoZIhvcNAQEFBQAwgaExCzAJBgNVBAYT
AlVTMRMwEQYDVQQIEwpDYWxpZm9ybmlhMRMwEQYDVQQHEwpEdW1teSBDaXR5MRsw
GQYDVQQKExJEdW1teSBPcmdhbml6YXRpb24xFzAVBgNVBAsTDkR1bW15IE9yZyBV
bml0MRIwEAYDVQQDEwlkdW1teS5jb20xHjAcBgkqhkiG9w0BCQEWD2R1bW15QGR1
bW15LmNvbTAeFw0xNDEwMjUwMDAwMDBaFw0xNTExMjcwNTUxNDNaMGoxCzAJBgNV
BAYTAlVTMRMwEQYDVQQIEwpDYWxpZm9ybmlhMRYwFAYDVQQHEw1Nb3VudGFpbiBW
aWV3MRMwEQYDVQQKEwpHb29nbGUgSW5jMRkwFwYDVQQDFBAqLmdvb2dsZWFwaXMu
Y29tMIGfMA0GCSqGSIb3DQEBAQUAA4GNADCBiQKBgQDE4XErnUSxN3R4chzYKa4N
ijqccppiGU3GyhDg+rE4SqDRBKeBhNC1Or0xkYRR1yNINN0Kp9vXSjEPZ4LKxMRG
g0rnEFSJ7c+diXwinAJIT3UVZkNPjsewbTxw0TeFyEbQ7YXlZpWpRpXGUgX1+Uwf
PXtoPWFcfMvvHBoQzDksKwIDAQABo2EwXzBdBgNVHREEVjBUghAqLmdvb2dsZWFw
aXMuY29tghgqLmNsb3VkZW5kcG9pbnRzYXBpcy5jb22CFmNsb3VkZW5kcG9pbnRz
YXBpcy5jb22CDmdvb2dsZWFwaXMuY29tMA0GCSqGSIb3DQEBBQUAA4GBAJ+rReqh
xzpFvJyt1m4oIvIEdCZXkALPerahD7zanQSQ2O4Tbb2pAWtCIDPWAFEaJP0v9PI+
Ms/CFTCKWPUG2gXMwlsWgWAVVb1zYBvudVQ0TUbkTOgV6Bj3HIdErDk+PK2xK3CE
HUY8udiMZu4rTHgssFAG/vt6Y0Re5FlFE1i0
-----END CERTIFICATE-----
