Certificate:
    Data:
        Version: 3 (0x2)
        Serial Number:
            32:57:79:15:40
    Signature Algorithm: sha1WithRSAEncryption
        Issuer: C=US, ST=California, L=Dummy City, O=Dummy Organization, OU=Dummy Org Unit, CN=dummy.com/emailAddress=dummy@dummy.com
        Validity
            Not Before: Oct 25 00:00:00 2014 GMT
            Not After : Nov 27 08:58:06 2015 GMT
        Subject: OU=Domain Control Validated, CN=*.gravatar.com
        Subject Public Key Info:
            Public Key Algorithm: rsaEncryption
                Public-Key: (1024 bit)
                Modulus:
                    00:d6:2f:1d:cc:11:30:d5:cc:f1:52:0b:36:ec:04:
                    8d:3c:d6:f2:d5:80:d9:cb:f1:0e:a3:98:70:10:9d:
                    4e:89:7c:a3:60:63:9f:15:7f:0d:99:78:61:fe:67:
                    3a:ef:58:d1:7b:03:4d:1f:e0:12:62:ce:68:ca:9d:
                    be:9a:30:18:fe:1a:d8:f8:fd:85:cc:56:54:72:31:
                    de:3d:be:1e:e8:3d:03:ed:64:bf:48:05:81:46:d9:
                    c9:41:71:00:57:14:cb:83:0f:f8:36:2f:ca:60:07:
                    ce:24:53:77:70:e3:58:8b:3e:4e:ac:1f:05:f9:b7:
                    15:36:25:20:9c:11:f9:60:c5
                Exponent: 65537 (0x10001)
        X509v3 extensions:
            X509v3 Subject Alternative Name: 
                DNS:*.gravatar.com, DNS:gravatar.com
    Signature Algorithm: sha1WithRSAEncryption
         0a:b4:ea:8a:2c:ae:a7:38:08:a3:19:3f:58:a9:64:b8:d7:0d:
         c7:d3:11:51:01:44:f0:61:9c:f1:5e:b6:91:e6:17:38:c9:a1:
         74:f1:ad:0d:af:c1:89:29:67:76:1d:f9:17:33:e3:01:3c:fc:
         f2:3c:f2:b2:58:1e:52:56:82:94:e9:0e:87:19:70:cb:7e:c2:
         52:ac:f2:2b:6d:ba:62:63:62:7a:4f:37:ac:37:69:b7:10:d3:
         2a:81:a2:34:dc:80:a8:91:7a:21:94:fe:92:a3:b7:78:3e:5f:
         b0:ac:62:6d:5d:bb:6f:b4:d1:a3:76:d0:f5:72:d3:bc:34:f4:
         0b:42
-----BEGIN CERTIFICATE-----
MIICgzCCAeygAwIBAgIFMld5FUAwDQYJKoZIhvcNAQEFBQAwgaExCzAJBgNVBAYT
AlVTMRMwEQYDVQQIEwpDYWxpZm9ybmlhMRMwEQYDVQQHEwpEdW1teSBDaXR5MRsw
GQYDVQQKExJEdW1teSBPcmdhbml6YXRpb24xFzAVBgNVBAsTDkR1bW15IE9yZyBV
bml0MRIwEAYDVQQDEwlkdW1teS5jb20xHjAcBgkqhkiG9w0BCQEWD2R1bW15QGR1
bW15LmNvbTAeFw0xNDEwMjUwMDAwMDBaFw0xNTExMjcwODU4MDZaMDwxITAfBgNV
BAsTGERvbWFpbiBDb250cm9sIFZhbGlkYXRlZDEXMBUGA1UEAxQOKi5ncmF2YXRh
ci5jb20wgZ8wDQYJKoZIhvcNAQEBBQADgY0AMIGJAoGBANYvHcwRMNXM8VILNuwE
jTzW8tWA2cvxDqOYcBCdTol8o2BjnxV/DZl4Yf5nOu9Y0XsDTR/gEmLOaMqdvpow
GP4a2Pj9hcxWVHIx3j2+Hug9A+1kv0gFgUbZyUFxAFcUy4MP+DYvymAHziRTd3Dj
WIs+TqwfBfm3FTYlIJwR+WDFAgMBAAGjKzApMCcGA1UdEQQgMB6CDiouZ3JhdmF0
YXIuY29tggxncmF2YXRhci5jb20wDQYJKoZIhvcNAQEFBQADgYEACrTqiiyupzgI
oxk/WKlkuNcNx9MRUQFE8GGc8V62keYXOMmhdPGtDa/BiSlndh35FzPjATz88jzy
slgeUlaClOkOhxlwy37CUqzyK226YmNiek83rDdptxDTKoGiNNyAqJF6IZT+kqO3
eD5fsKxibV27b7TRo3bQ9XLTvDT0C0I=
-----END CERTIFICATE-----
