Certificate:
    Data:
        Version: 3 (0x2)
        Serial Number:
            23:76:75:46:29
    Signature Algorithm: sha1WithRSAEncryption
        Issuer: C=US, ST=California, L=Dummy City, O=Dummy Organization, OU=Dummy Org Unit, CN=dummy.com/emailAddress=dummy@dummy.com
        Validity
            Not Before: Oct 25 00:00:00 2014 GMT
            Not After : Nov 27 07:42:34 2015 GMT
        Subject: C=US, ST=California, L=Mountain View, O=Google Inc, CN=*.google.com
        Subject Public Key Info:
            Public Key Algorithm: rsaEncryption
                Public-Key: (1024 bit)
                Modulus:
                    00:c6:f6:11:fa:e0:66:fd:51:63:6f:ee:29:e7:48:
                    b2:29:e9:b6:14:b5:64:53:a4:08:be:fe:b2:7a:8c:
                    15:be:84:24:7e:2c:55:d4:f7:72:87:22:10:36:23:
                    4b:05:17:a2:ca:f3:d2:61:40:da:11:29:48:1f:18:
                    9a:01:e9:eb:b6:8f:1f:05:00:37:8f:61:3e:46:39:
                    1f:2a:38:6a:d6:f3:16:18:91:bc:96:31:4b:86:67:
                    5e:ca:59:5d:3e:f6:27:0b:d2:47:af:47:c8:c4:4d:
                    96:80:ac:bb:5c:5f:5e:1c:b1:ca:90:69:d9:7e:ef:
                    7d:3f:b3:20:a9:4e:d9:f6:71
                Exponent: 65537 (0x10001)
        X509v3 extensions:
            X509v3 Subject Alternative Name: 
                DNS:*.google.com, DNS:*.android.com, DNS:*.appengine.google.com, DNS:*.cloud.google.com, DNS:*.google-analytics.com, DNS:*.google.ca, DNS:*.google.cl, DNS:*.google.co.in, DNS:*.google.co.jp, DNS:*.google.co.uk, DNS:*.google.com.ar, DNS:*.google.com.au, DNS:*.google.com.br, DNS:*.google.com.co, DNS:*.google.com.mx, DNS:*.google.com.tr, DNS:*.google.com.vn, DNS:*.google.de, DNS:*.google.es, DNS:*.google.fr, DNS:*.google.hu, DNS:*.google.it, DNS:*.google.nl, DNS:*.google.pl, DNS:*.google.pt, DNS:*.googleadapis.com, DNS:*.googleapis.cn, DNS:*.googlecommerce.com, DNS:*.googlevideo.com, DNS:*.gstatic.cn, DNS:*.gstatic.com, DNS:*.gvt1.com, DNS:*.gvt2.com, DNS:*.metric.gstatic.com, DNS:*.urchin.com, DNS:*.url.google.com, DNS:*.youtube-nocookie.com, DNS:*.youtube.com, DNS:*.youtubeeducation.com, DNS:*.ytimg.com, DNS:android.com, DNS:g.co, DNS:goo.gl, DNS:google-analytics.com, DNS:google.com, DNS:googlecommerce.com, DNS:urchin.com, DNS:youtu.be, DNS:youtube.com, DNS:youtubeeducation.com
    Signature Algorithm: sha1WithRSAEncryption
         27:8a:97:72:cc:1c:47:b3:b7:5b:b4:9b:4a:3f:5e:d8:6a:70:
         94:c7:91:ec:4a:73:c1:51:a7:85:19:a3:52:fd:a3:2a:a1:c2:
         ad:b3:fc:89:c7:28:6d:7a:50:a2:67:54:11:1c:18:f4:0b:7e:
         f2:c7:69:89:21:b1:81:53:03:6a:eb:cf:a6:ea:51:f6:6b:a4:
         17:7c:ac:ee:dc:47:2a:fe:88:86:ef:5c:ba:14:b7:6e:ce:28:
         4e:f9:ac:af:94:a1:3f:ca:d6:a3:23:d2:c6:64:50:d7:35:2f:
         64:0b:6f:64:c2:7b:1c:71:4f:72:88:90:99:4a:10:22:2a:45:
         cb:75
-----BEGIN CERTIFICATE-----
MIIFsjCCBRugAwIBAgIFI3Z1RikwDQYJKoZIhvcNAQEFBQAwgaExCzAJBgNVBAYT
AlVTMRMwEQYDVQQIEwpDYWxpZm9ybmlhMRMwEQYDVQQHEwpEdW1teSBDaXR5MRsw
GQYDVQQKExJEdW1teSBPcmdhbml6YXRpb24xFzAVBgNVBAsTDkR1bW15IE9yZyBV
bml0MRIwEAYDVQQDEwlkdW1teS5jb20xHjAcBgkqhkiG9w0BCQEWD2R1bW15QGR1
bW15LmNvbTAeFw0xNDEwMjUwMDAwMDBaFw0xNTExMjcwNzQyMzRaMGYxCzAJBgNV
BAYTAlVTMRMwEQYDVQQIEwpDYWxpZm9ybmlhMRYwFAYDVQQHEw1Nb3VudGFpbiBW
aWV3MRMwEQYDVQQKEwpHb29nbGUgSW5jMRUwEwYDVQQDFAwqLmdvb2dsZS5jb20w
gZ8wDQYJKoZIhvcNAQEBBQADgY0AMIGJAoGBAMb2EfrgZv1RY2/uKedIsinpthS1
ZFOkCL7+snqMFb6EJH4sVdT3cociEDYjSwUXosrz0mFA2hEpSB8YmgHp67aPHwUA
N49hPkY5Hyo4atbzFhiRvJYxS4ZnXspZXT72JwvSR69HyMRNloCsu1xfXhyxypBp
2X7vfT+zIKlO2fZxAgMBAAGjggMuMIIDKjCCAyYGA1UdEQSCAx0wggMZggwqLmdv
b2dsZS5jb22CDSouYW5kcm9pZC5jb22CFiouYXBwZW5naW5lLmdvb2dsZS5jb22C
EiouY2xvdWQuZ29vZ2xlLmNvbYIWKi5nb29nbGUtYW5hbHl0aWNzLmNvbYILKi5n
b29nbGUuY2GCCyouZ29vZ2xlLmNsgg4qLmdvb2dsZS5jby5pboIOKi5nb29nbGUu
Y28uanCCDiouZ29vZ2xlLmNvLnVrgg8qLmdvb2dsZS5jb20uYXKCDyouZ29vZ2xl
LmNvbS5hdYIPKi5nb29nbGUuY29tLmJygg8qLmdvb2dsZS5jb20uY2+CDyouZ29v
Z2xlLmNvbS5teIIPKi5nb29nbGUuY29tLnRygg8qLmdvb2dsZS5jb20udm6CCyou
Z29vZ2xlLmRlggsqLmdvb2dsZS5lc4ILKi5nb29nbGUuZnKCCyouZ29vZ2xlLmh1
ggsqLmdvb2dsZS5pdIILKi5nb29nbGUubmyCCyouZ29vZ2xlLnBsggsqLmdvb2ds
ZS5wdIISKi5nb29nbGVhZGFwaXMuY29tgg8qLmdvb2dsZWFwaXMuY26CFCouZ29v
Z2xlY29tbWVyY2UuY29tghEqLmdvb2dsZXZpZGVvLmNvbYIMKi5nc3RhdGljLmNu
gg0qLmdzdGF0aWMuY29tggoqLmd2dDEuY29tggoqLmd2dDIuY29tghQqLm1ldHJp
Yy5nc3RhdGljLmNvbYIMKi51cmNoaW4uY29tghAqLnVybC5nb29nbGUuY29tghYq
LnlvdXR1YmUtbm9jb29raWUuY29tgg0qLnlvdXR1YmUuY29tghYqLnlvdXR1YmVl
ZHVjYXRpb24uY29tggsqLnl0aW1nLmNvbYILYW5kcm9pZC5jb22CBGcuY2+CBmdv
by5nbIIUZ29vZ2xlLWFuYWx5dGljcy5jb22CCmdvb2dsZS5jb22CEmdvb2dsZWNv
bW1lcmNlLmNvbYIKdXJjaGluLmNvbYIIeW91dHUuYmWCC3lvdXR1YmUuY29tghR5
b3V0dWJlZWR1Y2F0aW9uLmNvbTANBgkqhkiG9w0BAQUFAAOBgQAnipdyzBxHs7db
tJtKP17YanCUx5HsSnPBUaeFGaNS/aMqocKts/yJxyhtelCiZ1QRHBj0C37yx2mJ
IbGBUwNq68+m6lH2a6QXfKzu3Ecq/oiG71y6FLduzihO+ayvlKE/ytajI9LGZFDX
NS9kC29kwnsccU9yiJCZShAiKkXLdQ==
-----END CERTIFICATE-----
