Certificate:
    Data:
        Version: 3 (0x2)
        Serial Number:
            26:87:04:20:81
    Signature Algorithm: sha1WithRSAEncryption
        Issuer: C=US, ST=California, L=Dummy City, O=Dummy Organization, OU=Dummy Org Unit, CN=dummy.com/emailAddress=dummy@dummy.com
        Validity
            Not Before: Oct 25 00:00:00 2014 GMT
            Not After : Nov 27 09:30:34 2015 GMT
        Subject: C=US, ST=California, L=Mountain View, O=Google Inc, CN=*.googleapis.com
        Subject Public Key Info:
            Public Key Algorithm: rsaEncryption
                Public-Key: (1024 bit)
                Modulus:
                    00:d1:ce:e0:81:bd:d9:f5:7f:d7:f4:9f:55:94:1a:
                    88:fe:8c:06:0e:05:e9:26:33:ab:74:68:4b:88:5f:
                    d8:1c:e9:0a:8c:37:4a:df:f2:84:5c:66:e3:33:82:
                    f2:bd:7b:09:16:28:ef:5d:d7:eb:1e:27:3d:c2:2e:
                    4e:2c:80:0b:5d:b0:d4:bb:2f:10:f2:4c:da:10:b5:
                    34:63:98:4c:c2:a7:8c:04:d8:7d:b5:18:77:8c:be:
                    82:98:5d:92:13:f7:bf:be:d4:9d:42:46:b8:b7:88:
                    b0:18:30:c0:78:cb:9a:eb:ff:96:86:21:15:fc:c2:
                    59:af:7d:70:0d:cb:cc:ea:e7
                Exponent: 65537 (0x10001)
        X509v3 extensions:
            X509v3 Subject Alternative Name: 
                DNS:*.googleapis.com, DNS:*.cloudendpointsapis.com, DNS:cloudendpointsapis.com, DNS:googleapis.com
    Signature Algorithm: sha1WithRSAEncryption
         24:0d:85:9a:48:9d:5d:59:be:a9:46:50:f4:cd:44:7c:bd:f3:
         54:84:0a:ae:44:aa:af:e9:b8:91:e5:c1:17:e7:5a:8b:8d:ec:
         ea:23:2a:b4:cc:7f:26:be:84:fe:f8:e0:6f:05:6f:a5:20:85:
         d2:7a:d2:d9:98:88:fc:18:24:ba:aa:f0:b3:a9:5e:41:7d:f9:
         74:f3:cf:97:52:38:76:db:83:cb:fc:b4:9d:cd:dd:e0:c2:19:
         9e:dc:dd:35:34:ff:bb:bc:f0:dc:5b:d0:8e:54:64:b7:aa:fb:
         b3:bc:1e:78:76:35:c3:cf:cc:7e:2a:db:a6:46:60:a9:20:65:
         54:40
-----BEGIN CERTIFICATE-----
MIIC5zCCAlCgAwIBAgIFJocEIIEwDQYJKoZIhvcNAQEFBQAwgaExCzAJBgNVBAYT
AlVTMRMwEQYDVQQIEwpDYWxpZm9ybmlhMRMwEQYDVQQHEwpEdW1teSBDaXR5MRsw
GQYDVQQKExJEdW1teSBPcmdhbml6YXRpb24xFzAVBgNVBAsTDkR1bW15IE9yZyBV
bml0MRIwEAYDVQQDEwlkdW1teS5jb20xHjAcBgkqhkiG9w0BCQEWD2R1bW15QGR1
bW15LmNvbTAeFw0xNDEwMjUwMDAwMDBaFw0xNTExMjcwOTMwMzRaMGoxCzAJBgNV
BAYTAlVTMRMwEQYDVQQIEwpDYWxpZm9ybmlhMRYwFAYDVQQHEw1Nb3VudGFpbiBW
aWV3MRMwEQYDVQQKEwpHb29nbGUgSW5jMRkwFwYDVQQDFBAqLmdvb2dsZWFwaXMu
Y29tMIGfMA0GCSqGSIb3DQEBAQUAA4GNADCBiQKBgQDRzuCBvdn1f9f0n1WUGoj+
jAYOBekmM6t0aEuIX9gc6QqMN0rf8oRcZuMzgvK9ewkWKO9d1+seJz3CLk4sgAtd
sNS7LxDyTNoQtTRjmEzCp4wE2H21GHeMvoKYXZIT97++1J1CRri3iLAYMMB4y5rr
/5aGIRX8wlmvfXANy8zq5wIDAQABo2EwXzBdBgNVHREEVjBUghAqLmdvb2dsZWFw
aXMuY29tghgqLmNsb3VkZW5kcG9pbnRzYXBpcy5jb22CFmNsb3VkZW5kcG9pbnRz
YXBpcy5jb22CDmdvb2dsZWFwaXMuY29tMA0GCSqGSIb3DQEBBQUAA4GBACQNhZpI
nV1ZvqlGUPTNRHy981SECq5Eqq/puJHlwRfnWouN7OojKrTMfya+hP744G8Fb6Ug
hdJ60tmYiPwYJLqq8LOpXkF9+XTzz5dSOHbbg8v8tJ3N3eDCGZ7c3TU0/7u88Nxb
0I5UZLeq+7O8Hnh2NcPPzH4q26ZGYKkgZVRA
-----END CERTIFICATE-----
