Certificate:
    Data:
        Version: 3 (0x2)
        Serial Number:
            41:93:48:88:09
    Signature Algorithm: sha1WithRSAEncryption
        Issuer: C=US, ST=California, L=Dummy City, O=Dummy Organization, OU=Dummy Org Unit, CN=dummy.com/emailAddress=dummy@dummy.com
        Validity
            Not Before: Oct 25 00:00:00 2014 GMT
            Not After : Nov 27 05:55:02 2015 GMT
        Subject: C=US, ST=California, L=Mountain View, O=Google Inc, CN=*.google.com
        Subject Public Key Info:
            Public Key Algorithm: rsaEncryption
                Public-Key: (1024 bit)
                Modulus:
                    00:e6:0e:12:51:de:72:9c:6f:e7:ae:37:5d:11:8d:
                    c5:08:c2:a6:16:46:d0:21:4b:e6:1b:af:6e:df:0a:
                    0f:a6:e9:75:0a:5c:2d:0a:c9:37:d0:8b:70:24:de:
                    38:df:d5:79:e3:7f:1b:ab:01:9a:19:00:ec:38:bc:
                    21:10:9a:35:69:59:59:bf:98:57:ee:b5:cb:ef:9c:
                    1d:0e:54:4f:33:08:91:84:cf:2f:3e:5e:71:03:62:
                    8d:40:67:59:aa:40:26:6a:3e:ea:cb:4b:3e:ab:df:
                    ca:dd:c4:b7:b5:b5:c8:65:30:50:00:ae:98:fc:9c:
                    17:15:bc:34:ed:19:1f:6e:9d
                Exponent: 65537 (0x10001)
        X509v3 extensions:
            X509v3 Subject Alternative Name: 
                DNS:*.google.com, DNS:*.android.com, DNS:*.appengine.google.com, DNS:*.cloud.google.com, DNS:*.google-analytics.com, DNS:*.google.ca, DNS:*.google.cl, DNS:*.google.co.in, DNS:*.google.co.jp, DNS:*.google.co.uk, DNS:*.google.com.ar, DNS:*.google.com.au, DNS:*.google.com.br, DNS:*.google.com.co, DNS:*.google.com.mx, DNS:*.google.com.tr, DNS:*.google.com.vn, DNS:*.google.de, DNS:*.google.es, DNS:*.google.fr, DNS:*.google.hu, DNS:*.google.it, DNS:*.google.nl, DNS:*.google.pl, DNS:*.google.pt, DNS:*.googleadapis.com, DNS:*.googleapis.cn, DNS:*.googlecommerce.com, DNS:*.googlevideo.com, DNS:*.gstatic.cn, DNS:*.gstatic.com, DNS:*.gvt1.com, DNS:*.gvt2.com, DNS:*.metric.gstatic.com, DNS:*.urchin.com, DNS:*.url.google.com, DNS:*.youtube-nocookie.com, DNS:*.youtube.com, DNS:*.youtubeeducation.com, DNS:*.ytimg.com, DNS:android.com, DNS:g.co, DNS:goo.gl, DNS:google-analytics.com, DNS:google.com, DNS:googlecommerce.com, DNS:urchin.com, DNS:youtu.be, DNS:youtube.com, DNS:youtubeeducation.com
    Signature Algorithm: sha1WithRSAEncryption
         7c:b4:f9:73:0d:eb:0c:01:18:07:89:4a:7d:cb:f5:01:7d:e2:
         9c:78:18:fd:d0:8c:e7:4a:e3:2c:a3:0b:30:b1:93:e4:85:9b:
         d0:15:30:f7:30:9b:b3:11:0e:e5:21:6c:13:f5:ce:97:6a:be:
         14:7d:c5:bc:81:f7:98:c4:c5:48:99:f5:c4:3e:0a:da:2b:f0:
         06:eb:c5:02:a7:16:98:df:c3:c2:15:4c:89:5c:a9:2a:f5:75:
         68:6b:4a:bc:2f:51:5a:65:62:24:db:64:24:c6:42:5c:fa:ae:
         f4:5c:07:b1:a1:2c:bc:be:cb:34:40:be:a1:41:b6:e7:f6:07:
         09:2c
-----BEGIN CERTIFICATE-----
MIIFsjCCBRugAwIBAgIFQZNIiAkwDQYJKoZIhvcNAQEFBQAwgaExCzAJBgNVBAYT
AlVTMRMwEQYDVQQIEwpDYWxpZm9ybmlhMRMwEQYDVQQHEwpEdW1teSBDaXR5MRsw
GQYDVQQKExJEdW1teSBPcmdhbml6YXRpb24xFzAVBgNVBAsTDkR1bW15IE9yZyBV
bml0MRIwEAYDVQQDEwlkdW1teS5jb20xHjAcBgkqhkiG9w0BCQEWD2R1bW15QGR1
bW15LmNvbTAeFw0xNDEwMjUwMDAwMDBaFw0xNTExMjcwNTU1MDJaMGYxCzAJBgNV
BAYTAlVTMRMwEQYDVQQIEwpDYWxpZm9ybmlhMRYwFAYDVQQHEw1Nb3VudGFpbiBW
aWV3MRMwEQYDVQQKEwpHb29nbGUgSW5jMRUwEwYDVQQDFAwqLmdvb2dsZS5jb20w
gZ8wDQYJKoZIhvcNAQEBBQADgY0AMIGJAoGBAOYOElHecpxv5643XRGNxQjCphZG
0CFL5huvbt8KD6bpdQpcLQrJN9CLcCTeON/VeeN/G6sBmhkA7Di8IRCaNWlZWb+Y
V+61y++cHQ5UTzMIkYTPLz5ecQNijUBnWapAJmo+6stLPqvfyt3Et7W1yGUwUACu
mPycFxW8NO0ZH26dAgMBAAGjggMuMIIDKjCCAyYGA1UdEQSCAx0wggMZggwqLmdv
b2dsZS5jb22CDSouYW5kcm9pZC5jb22CFiouYXBwZW5naW5lLmdvb2dsZS5jb22C
EiouY2xvdWQuZ29vZ2xlLmNvbYIWKi5nb29nbGUtYW5hbHl0aWNzLmNvbYILKi5n
b29nbGUuY2GCCyouZ29vZ2xlLmNsgg4qLmdvb2dsZS5jby5pboIOKi5nb29nbGUu
Y28uanCCDiouZ29vZ2xlLmNvLnVrgg8qLmdvb2dsZS5jb20uYXKCDyouZ29vZ2xl
LmNvbS5hdYIPKi5nb29nbGUuY29tLmJygg8qLmdvb2dsZS5jb20uY2+CDyouZ29v
Z2xlLmNvbS5teIIPKi5nb29nbGUuY29tLnRygg8qLmdvb2dsZS5jb20udm6CCyou
Z29vZ2xlLmRlggsqLmdvb2dsZS5lc4ILKi5nb29nbGUuZnKCCyouZ29vZ2xlLmh1
ggsqLmdvb2dsZS5pdIILKi5nb29nbGUubmyCCyouZ29vZ2xlLnBsggsqLmdvb2ds
ZS5wdIISKi5nb29nbGVhZGFwaXMuY29tgg8qLmdvb2dsZWFwaXMuY26CFCouZ29v
Z2xlY29tbWVyY2UuY29tghEqLmdvb2dsZXZpZGVvLmNvbYIMKi5nc3RhdGljLmNu
gg0qLmdzdGF0aWMuY29tggoqLmd2dDEuY29tggoqLmd2dDIuY29tghQqLm1ldHJp
Yy5nc3RhdGljLmNvbYIMKi51cmNoaW4uY29tghAqLnVybC5nb29nbGUuY29tghYq
LnlvdXR1YmUtbm9jb29raWUuY29tgg0qLnlvdXR1YmUuY29tghYqLnlvdXR1YmVl
ZHVjYXRpb24uY29tggsqLnl0aW1nLmNvbYILYW5kcm9pZC5jb22CBGcuY2+CBmdv
by5nbIIUZ29vZ2xlLWFuYWx5dGljcy5jb22CCmdvb2dsZS5jb22CEmdvb2dsZWNv
bW1lcmNlLmNvbYIKdXJjaGluLmNvbYIIeW91dHUuYmWCC3lvdXR1YmUuY29tghR5
b3V0dWJlZWR1Y2F0aW9uLmNvbTANBgkqhkiG9w0BAQUFAAOBgQB8tPlzDesMARgH
iUp9y/UBfeKceBj90IznSuMsowswsZPkhZvQFTD3MJuzEQ7lIWwT9c6Xar4UfcW8
gfeYxMVImfXEPgraK/AG68UCpxaY38PCFUyJXKkq9XVoa0q8L1FaZWIk22QkxkJc
+q70XAexoSy8vss0QL6hQbbn9gcJLA==
-----END CERTIFICATE-----
