Certificate:
    Data:
        Version: 3 (0x2)
        Serial Number:
            33:08:67:90:11
    Signature Algorithm: sha1WithRSAEncryption
        Issuer: C=US, ST=California, L=Dummy City, O=Dummy Organization, OU=Dummy Org Unit, CN=dummy.com/emailAddress=dummy@dummy.com
        Validity
            Not Before: Oct 25 00:00:00 2014 GMT
            Not After : Nov 27 06:25:38 2015 GMT
        Subject: C=US, ST=California, L=Mountain View, O=Google Inc, CN=*.google.com
        Subject Public Key Info:
            Public Key Algorithm: rsaEncryption
                Public-Key: (1024 bit)
                Modulus:
                    00:b6:48:77:a5:2e:7f:74:85:72:71:0b:c8:a8:ac:
                    77:50:b9:54:ba:d3:44:35:54:d7:0d:38:35:be:19:
                    aa:4c:69:ea:e0:d9:90:aa:80:e1:d4:4b:2a:e9:00:
                    3d:c4:9f:88:2c:46:27:77:06:d4:f1:b4:ec:be:14:
                    e3:80:23:3c:d3:9e:0e:cf:40:56:55:1e:d0:fa:fd:
                    7b:78:99:ea:52:af:df:a2:78:83:fb:16:3d:ef:05:
                    9b:e6:ea:45:7a:db:f7:47:7b:4d:ea:3e:6a:a2:0f:
                    bf:65:9a:9f:10:bd:69:c0:7a:85:4d:79:53:b0:20:
                    44:16:22:a7:a5:bc:2a:2b:13
                Exponent: 65537 (0x10001)
        X509v3 extensions:
            X509v3 Subject Alternative Name: 
                DNS:*.google.com, DNS:*.android.com, DNS:*.appengine.google.com, DNS:*.cloud.google.com, DNS:*.google-analytics.com, DNS:*.google.ca, DNS:*.google.cl, DNS:*.google.co.in, DNS:*.google.co.jp, DNS:*.google.co.uk, DNS:*.google.com.ar, DNS:*.google.com.au, DNS:*.google.com.br, DNS:*.google.com.co, DNS:*.google.com.mx, DNS:*.google.com.tr, DNS:*.google.com.vn, DNS:*.google.de, DNS:*.google.es, DNS:*.google.fr, DNS:*.google.hu, DNS:*.google.it, DNS:*.google.nl, DNS:*.google.pl, DNS:*.google.pt, DNS:*.googleadapis.com, DNS:*.googleapis.cn, DNS:*.googlecommerce.com, DNS:*.googlevideo.com, DNS:*.gstatic.cn, DNS:*.gstatic.com, DNS:*.gvt1.com, DNS:*.gvt2.com, DNS:*.metric.gstatic.com, DNS:*.urchin.com, DNS:*.url.google.com, DNS:*.youtube-nocookie.com, DNS:*.youtube.com, DNS:*.youtubeeducation.com, DNS:*.ytimg.com, DNS:android.com, DNS:g.co, DNS:goo.gl, DNS:google-analytics.com, DNS:google.com, DNS:googlecommerce.com, DNS:urchin.com, DNS:youtu.be, DNS:youtube.com, DNS:youtubeeducation.com
    Signature Algorithm: sha1WithRSAEncryption
         6b:dc:79:f3:b6:e5:16:05:de:cf:24:6e:7f:45:18:ea:98:56:
         ac:2f:de:80:fc:28:a1:60:e7:99:f4:fe:37:89:cd:dc:d8:47:
         b8:08:47:9b:33:8d:9f:f4:e5:f9:65:63:14:62:24:c0:b1:8b:
         59:5b:2e:21:5b:8b:a2:b1:dd:3c:47:83:ee:d9:87:e3:ed:7c:
         72:f9:05:2c:23:a7:7f:db:c7:64:43:c4:a4:02:a4:c0:7f:a2:
         d4:8b:2b:16:e0:44:f8:ff:62:1d:e3:6f:26:0e:d3:b8:c4:fd:
         b9:d3:0d:56:3a:ba:80:35:1d:30:f6:10:a0:63:e5:99:1b:2b:
         1a:22
-----BEGIN CERTIFICATE-----
MIIFsjCCBRugAwIBAgIFMwhnkBEwDQYJKoZIhvcNAQEFBQAwgaExCzAJBgNVBAYT
AlVTMRMwEQYDVQQIEwpDYWxpZm9ybmlhMRMwEQYDVQQHEwpEdW1teSBDaXR5MRsw
GQYDVQQKExJEdW1teSBPcmdhbml6YXRpb24xFzAVBgNVBAsTDkR1bW15IE9yZyBV
bml0MRIwEAYDVQQDEwlkdW1teS5jb20xHjAcBgkqhkiG9w0BCQEWD2R1bW15QGR1
bW15LmNvbTAeFw0xNDEwMjUwMDAwMDBaFw0xNTExMjcwNjI1MzhaMGYxCzAJBgNV
BAYTAlVTMRMwEQYDVQQIEwpDYWxpZm9ybmlhMRYwFAYDVQQHEw1Nb3VudGFpbiBW
aWV3MRMwEQYDVQQKEwpHb29nbGUgSW5jMRUwEwYDVQQDFAwqLmdvb2dsZS5jb20w
gZ8wDQYJKoZIhvcNAQEBBQADgY0AMIGJAoGBALZId6Uuf3SFcnELyKisd1C5VLrT
RDVU1w04Nb4Zqkxp6uDZkKqA4dRLKukAPcSfiCxGJ3cG1PG07L4U44AjPNOeDs9A
VlUe0Pr9e3iZ6lKv36J4g/sWPe8Fm+bqRXrb90d7Teo+aqIPv2WanxC9acB6hU15
U7AgRBYip6W8KisTAgMBAAGjggMuMIIDKjCCAyYGA1UdEQSCAx0wggMZggwqLmdv
b2dsZS5jb22CDSouYW5kcm9pZC5jb22CFiouYXBwZW5naW5lLmdvb2dsZS5jb22C
EiouY2xvdWQuZ29vZ2xlLmNvbYIWKi5nb29nbGUtYW5hbHl0aWNzLmNvbYILKi5n
b29nbGUuY2GCCyouZ29vZ2xlLmNsgg4qLmdvb2dsZS5jby5pboIOKi5nb29nbGUu
Y28uanCCDiouZ29vZ2xlLmNvLnVrgg8qLmdvb2dsZS5jb20uYXKCDyouZ29vZ2xl
LmNvbS5hdYIPKi5nb29nbGUuY29tLmJygg8qLmdvb2dsZS5jb20uY2+CDyouZ29v
Z2xlLmNvbS5teIIPKi5nb29nbGUuY29tLnRygg8qLmdvb2dsZS5jb20udm6CCyou
Z29vZ2xlLmRlggsqLmdvb2dsZS5lc4ILKi5nb29nbGUuZnKCCyouZ29vZ2xlLmh1
ggsqLmdvb2dsZS5pdIILKi5nb29nbGUubmyCCyouZ29vZ2xlLnBsggsqLmdvb2ds
ZS5wdIISKi5nb29nbGVhZGFwaXMuY29tgg8qLmdvb2dsZWFwaXMuY26CFCouZ29v
Z2xlY29tbWVyY2UuY29tghEqLmdvb2dsZXZpZGVvLmNvbYIMKi5nc3RhdGljLmNu
gg0qLmdzdGF0aWMuY29tggoqLmd2dDEuY29tggoqLmd2dDIuY29tghQqLm1ldHJp
Yy5nc3RhdGljLmNvbYIMKi51cmNoaW4uY29tghAqLnVybC5nb29nbGUuY29tghYq
LnlvdXR1YmUtbm9jb29raWUuY29tgg0qLnlvdXR1YmUuY29tghYqLnlvdXR1YmVl
ZHVjYXRpb24uY29tggsqLnl0aW1nLmNvbYILYW5kcm9pZC5jb22CBGcuY2+CBmdv
by5nbIIUZ29vZ2xlLWFuYWx5dGljcy5jb22CCmdvb2dsZS5jb22CEmdvb2dsZWNv
bW1lcmNlLmNvbYIKdXJjaGluLmNvbYIIeW91dHUuYmWCC3lvdXR1YmUuY29tghR5
b3V0dWJlZWR1Y2F0aW9uLmNvbTANBgkqhkiG9w0BAQUFAAOBgQBr3HnztuUWBd7P
JG5/RRjqmFasL96A/CihYOeZ9P43ic3c2Ee4CEebM42f9OX5ZWMUYiTAsYtZWy4h
W4uisd08R4Pu2Yfj7Xxy+QUsI6d/28dkQ8SkAqTAf6LUiysW4ET4/2Id428mDtO4
xP250w1WOrqANR0w9hCgY+WZGysaIg==
-----END CERTIFICATE-----
