Certificate:
    Data:
        Version: 3 (0x2)
        Serial Number:
            31:15:91:86:46
    Signature Algorithm: sha1WithRSAEncryption
        Issuer: C=US, ST=California, L=Dummy City, O=Dummy Organization, OU=Dummy Org Unit, CN=dummy.com/emailAddress=dummy@dummy.com
        Validity
            Not Before: Oct 25 00:00:00 2014 GMT
            Not After : Nov 27 09:16:36 2015 GMT
        Subject: C=US, ST=California, L=Mountain View, O=Google Inc, CN=*.google.com.ph
        Subject Public Key Info:
            Public Key Algorithm: rsaEncryption
                Public-Key: (1024 bit)
                Modulus:
                    00:b3:88:d5:6f:7f:4f:dd:74:f0:d2:33:a7:f8:47:
                    31:ab:28:3a:37:68:ed:4f:b6:ee:cf:fa:4d:bd:88:
                    a3:3e:65:47:14:e8:98:9b:3d:eb:27:03:80:a8:fb:
                    2a:17:62:16:22:e3:f2:bf:ec:0b:6d:2e:37:1e:a8:
                    cd:61:b9:ff:55:c1:e7:7f:70:7e:a8:17:7c:6f:be:
                    5a:73:fb:0e:c9:ef:d0:6a:f8:9d:2d:a1:67:91:ca:
                    5b:cb:6a:67:52:20:c1:e0:df:1a:30:6d:58:ae:a3:
                    d5:94:f1:64:44:6b:87:9c:e4:f4:22:6d:78:b7:e6:
                    80:d5:b8:18:b0:26:6a:6a:13
                Exponent: 65537 (0x10001)
        X509v3 extensions:
            X509v3 Subject Alternative Name: 
                DNS:*.google.com.ph, DNS:google.com.ph
    Signature Algorithm: sha1WithRSAEncryption
         27:d9:d6:c9:a3:48:ef:58:2d:86:ea:0c:8d:d9:79:e2:8e:26:
         db:5f:42:dc:d8:8d:56:56:7f:a8:15:6d:07:31:a6:2d:e2:55:
         70:a7:1c:fc:98:11:92:be:92:21:90:c5:31:23:0e:61:4e:32:
         f0:00:c5:7b:2b:5f:d9:0c:ce:22:b9:25:8e:a8:19:c3:33:4b:
         dc:a1:11:ca:ed:fa:6f:e3:c4:05:c9:7d:87:49:1e:b0:bb:ce:
         99:b6:bd:02:15:66:46:e2:9a:a6:7f:57:4d:a3:ca:a7:d2:37:
         d7:d0:18:fb:d9:eb:48:a9:e1:53:ed:c3:51:20:bc:81:e7:33:
         79:09
-----BEGIN CERTIFICATE-----
MIICsjCCAhugAwIBAgIFMRWRhkYwDQYJKoZIhvcNAQEFBQAwgaExCzAJBgNVBAYT
AlVTMRMwEQYDVQQIEwpDYWxpZm9ybmlhMRMwEQYDVQQHEwpEdW1teSBDaXR5MRsw
GQYDVQQKExJEdW1teSBPcmdhbml6YXRpb24xFzAVBgNVBAsTDkR1bW15IE9yZyBV
bml0MRIwEAYDVQQDEwlkdW1teS5jb20xHjAcBgkqhkiG9w0BCQEWD2R1bW15QGR1
bW15LmNvbTAeFw0xNDEwMjUwMDAwMDBaFw0xNTExMjcwOTE2MzZaMGkxCzAJBgNV
BAYTAlVTMRMwEQYDVQQIEwpDYWxpZm9ybmlhMRYwFAYDVQQHEw1Nb3VudGFpbiBW
aWV3MRMwEQYDVQQKEwpHb29nbGUgSW5jMRgwFgYDVQQDFA8qLmdvb2dsZS5jb20u
cGgwgZ8wDQYJKoZIhvcNAQEBBQADgY0AMIGJAoGBALOI1W9/T9108NIzp/hHMaso
Ojdo7U+27s/6Tb2Ioz5lRxTomJs96ycDgKj7KhdiFiLj8r/sC20uNx6ozWG5/1XB
539wfqgXfG++WnP7Dsnv0Gr4nS2hZ5HKW8tqZ1IgweDfGjBtWK6j1ZTxZERrh5zk
9CJteLfmgNW4GLAmamoTAgMBAAGjLTArMCkGA1UdEQQiMCCCDyouZ29vZ2xlLmNv
bS5waIINZ29vZ2xlLmNvbS5waDANBgkqhkiG9w0BAQUFAAOBgQAn2dbJo0jvWC2G
6gyN2XnijibbX0Lc2I1WVn+oFW0HMaYt4lVwpxz8mBGSvpIhkMUxIw5hTjLwAMV7
K1/ZDM4iuSWOqBnDM0vcoRHK7fpv48QFyX2HSR6wu86Ztr0CFWZG4pqmf1dNo8qn
0jfX0Bj72etIqeFT7cNRILyB5zN5CQ==
-----END CERTIFICATE-----
