Certificate:
    Data:
        Version: 3 (0x2)
        Serial Number:
            19:82:18:73:91
    Signature Algorithm: sha1WithRSAEncryption
        Issuer: C=US, ST=California, L=Dummy City, O=Dummy Organization, OU=Dummy Org Unit, CN=dummy.com/emailAddress=dummy@dummy.com
        Validity
            Not Before: Oct 25 00:00:00 2014 GMT
            Not After : Nov 27 09:17:22 2015 GMT
        Subject: C=US, ST=California, L=Mountain View, O=Google Inc, CN=*.google-analytics.com
        Subject Public Key Info:
            Public Key Algorithm: rsaEncryption
                Public-Key: (1024 bit)
                Modulus:
                    00:c0:53:6f:1a:e0:59:7c:ea:a1:0a:9a:9f:f5:07:
                    5f:c4:c3:83:8b:11:29:36:37:a8:6b:c8:6e:47:16:
                    14:ea:8a:bd:85:0c:ab:7a:fb:40:37:02:db:70:16:
                    37:07:87:53:28:9c:23:70:f5:5f:a3:9e:b0:10:a2:
                    32:26:cb:df:ef:ad:68:1e:fe:cb:eb:20:ad:1a:f1:
                    f9:a3:f9:a3:d3:6a:4e:d9:85:57:74:10:08:9b:85:
                    fb:14:cf:ca:2b:aa:9e:53:fe:11:1e:d4:ef:74:8a:
                    4f:14:2e:5f:87:9e:aa:20:56:9e:be:db:07:75:70:
                    45:89:65:aa:1f:26:44:f4:f7
                Exponent: 65537 (0x10001)
        X509v3 extensions:
            X509v3 Subject Alternative Name: 
                DNS:*.google-analytics.com, DNS:google-analytics.com, DNS:googletagmanager.com, DNS:service.urchin.com, DNS:ssl.google-analytics.com, DNS:urchin.com, DNS:www.google-analytics.com, DNS:www.googletagmanager.com
    Signature Algorithm: sha1WithRSAEncryption
         63:f3:a3:44:02:26:fd:6e:20:c1:32:b4:4e:6e:ab:b9:ed:bb:
         af:74:8a:c9:7a:06:4c:00:23:40:3f:11:68:4e:21:95:24:75:
         11:2e:ae:e5:8e:6e:d4:ee:d6:db:98:8d:b1:9f:30:61:79:d1:
         d6:90:18:ab:74:21:21:73:d5:17:79:e8:2e:a9:b4:36:cf:38:
         3a:38:1b:aa:1b:e5:32:7f:e1:32:18:90:19:75:59:2c:79:8e:
         83:bf:53:6d:d9:3f:c1:a5:c8:e8:7e:e5:e7:56:6f:b1:b2:28:
         64:4c:94:6d:be:3b:e2:17:fc:e3:18:b1:1f:49:0e:36:69:10:
         65:08
-----BEGIN CERTIFICATE-----
MIIDUDCCArmgAwIBAgIFGYIYc5EwDQYJKoZIhvcNAQEFBQAwgaExCzAJBgNVBAYT
AlVTMRMwEQYDVQQIEwpDYWxpZm9ybmlhMRMwEQYDVQQHEwpEdW1teSBDaXR5MRsw
GQYDVQQKExJEdW1teSBPcmdhbml6YXRpb24xFzAVBgNVBAsTDkR1bW15IE9yZyBV
bml0MRIwEAYDVQQDEwlkdW1teS5jb20xHjAcBgkqhkiG9w0BCQEWD2R1bW15QGR1
bW15LmNvbTAeFw0xNDEwMjUwMDAwMDBaFw0xNTExMjcwOTE3MjJaMHAxCzAJBgNV
BAYTAlVTMRMwEQYDVQQIEwpDYWxpZm9ybmlhMRYwFAYDVQQHEw1Nb3VudGFpbiBW
aWV3MRMwEQYDVQQKEwpHb29nbGUgSW5jMR8wHQYDVQQDFBYqLmdvb2dsZS1hbmFs
eXRpY3MuY29tMIGfMA0GCSqGSIb3DQEBAQUAA4GNADCBiQKBgQDAU28a4Fl86qEK
mp/1B1/Ew4OLESk2N6hryG5HFhTqir2FDKt6+0A3AttwFjcHh1MonCNw9V+jnrAQ
ojImy9/vrWge/svrIK0a8fmj+aPTak7ZhVd0EAibhfsUz8orqp5T/hEe1O90ik8U
Ll+HnqogVp6+2wd1cEWJZaofJkT09wIDAQABo4HDMIHAMIG9BgNVHREEgbUwgbKC
FiouZ29vZ2xlLWFuYWx5dGljcy5jb22CFGdvb2dsZS1hbmFseXRpY3MuY29tghRn
b29nbGV0YWdtYW5hZ2VyLmNvbYISc2VydmljZS51cmNoaW4uY29tghhzc2wuZ29v
Z2xlLWFuYWx5dGljcy5jb22CCnVyY2hpbi5jb22CGHd3dy5nb29nbGUtYW5hbHl0
aWNzLmNvbYIYd3d3Lmdvb2dsZXRhZ21hbmFnZXIuY29tMA0GCSqGSIb3DQEBBQUA
A4GBAGPzo0QCJv1uIMEytE5uq7ntu690isl6BkwAI0A/EWhOIZUkdREuruWObtTu
1tuYjbGfMGF50daQGKt0ISFz1Rd56C6ptDbPODo4G6ob5TJ/4TIYkBl1WSx5joO/
U23ZP8GlyOh+5edWb7GyKGRMlG2+O+IX/OMYsR9JDjZpEGUI
-----END CERTIFICATE-----
