Certificate:
    Data:
        Version: 3 (0x2)
        Serial Number:
            07:92:51:41:38
    Signature Algorithm: sha1WithRSAEncryption
        Issuer: C=US, ST=California, L=Dummy City, O=Dummy Organization, OU=Dummy Org Unit, CN=dummy.com/emailAddress=dummy@dummy.com
        Validity
            Not Before: Oct 25 00:00:00 2014 GMT
            Not After : Nov 27 09:16:50 2015 GMT
        Subject: C=US, ST=California, L=San Francisco, O=Fastly, Inc., CN=www.github.com
        Subject Public Key Info:
            Public Key Algorithm: rsaEncryption
                Public-Key: (1024 bit)
                Modulus:
                    00:dc:cc:76:e1:7d:4a:fd:25:4c:7f:a6:d0:ae:d3:
                    58:c7:63:bb:ef:7f:22:39:15:17:01:3c:eb:53:41:
                    23:7f:82:00:4c:dd:77:4f:91:69:e6:10:bd:f2:ac:
                    67:ed:29:44:8d:e9:23:cf:c0:b9:19:e0:18:a8:6d:
                    5e:f3:bd:be:57:35:6d:67:64:6a:8c:ff:c7:d5:b9:
                    39:50:27:9e:ca:79:f0:2a:3b:c9:96:bf:b2:af:87:
                    7e:02:bb:51:e8:f0:e3:c7:cf:17:d9:e2:d9:72:ce:
                    fa:12:5e:7e:21:76:25:56:23:52:b6:d7:d4:6b:4c:
                    5a:5c:d5:fa:8f:13:14:19:13
                Exponent: 65537 (0x10001)
        X509v3 extensions:
            X509v3 Subject Alternative Name: 
                DNS:www.github.com, DNS:*.github.com, DNS:*.github.io, DNS:*.githubusercontent.com
    Signature Algorithm: sha1WithRSAEncryption
         56:dd:96:92:aa:c9:39:a5:12:50:81:64:fb:36:da:b0:f0:47:
         f7:0b:7e:fc:3f:dc:2a:d1:d2:b8:66:bc:a3:1b:2e:76:35:aa:
         30:6d:f3:0e:e1:9f:79:50:20:c3:3b:6f:af:ac:e5:31:ac:d0:
         2c:c8:d0:9a:2b:01:9c:ed:41:73:43:82:c4:a7:99:09:69:4b:
         bd:2a:23:4b:df:2f:df:f7:01:3f:5e:80:c2:bc:30:08:33:64:
         97:21:44:c3:10:91:35:83:1e:17:41:79:8d:48:4a:d9:c6:dc:
         f1:63:7c:0f:24:9c:e3:85:12:c7:7e:0f:57:57:be:89:cd:6d:
         41:ca
-----BEGIN CERTIFICATE-----
MIIC1zCCAkCgAwIBAgIFB5JRQTgwDQYJKoZIhvcNAQEFBQAwgaExCzAJBgNVBAYT
AlVTMRMwEQYDVQQIEwpDYWxpZm9ybmlhMRMwEQYDVQQHEwpEdW1teSBDaXR5MRsw
GQYDVQQKExJEdW1teSBPcmdhbml6YXRpb24xFzAVBgNVBAsTDkR1bW15IE9yZyBV
bml0MRIwEAYDVQQDEwlkdW1teS5jb20xHjAcBgkqhkiG9w0BCQEWD2R1bW15QGR1
bW15LmNvbTAeFw0xNDEwMjUwMDAwMDBaFw0xNTExMjcwOTE2NTBaMGoxCzAJBgNV
BAYTAlVTMRMwEQYDVQQIEwpDYWxpZm9ybmlhMRYwFAYDVQQHEw1TYW4gRnJhbmNp
c2NvMRUwEwYDVQQKEwxGYXN0bHksIEluYy4xFzAVBgNVBAMTDnd3dy5naXRodWIu
Y29tMIGfMA0GCSqGSIb3DQEBAQUAA4GNADCBiQKBgQDczHbhfUr9JUx/ptCu01jH
Y7vvfyI5FRcBPOtTQSN/ggBM3XdPkWnmEL3yrGftKUSN6SPPwLkZ4BiobV7zvb5X
NW1nZGqM/8fVuTlQJ57KefAqO8mWv7Kvh34Cu1Ho8OPHzxfZ4tlyzvoSXn4hdiVW
I1K219RrTFpc1fqPExQZEwIDAQABo1EwTzBNBgNVHREERjBEgg53d3cuZ2l0aHVi
LmNvbYIMKi5naXRodWIuY29tggsqLmdpdGh1Yi5pb4IXKi5naXRodWJ1c2VyY29u
dGVudC5jb20wDQYJKoZIhvcNAQEFBQADgYEAVt2WkqrJOaUSUIFk+zbasPBH9wt+
/D/cKtHSuGa8oxsudjWqMG3zDuGfeVAgwztvr6zlMazQLMjQmisBnO1Bc0OCxKeZ
CWlLvSojS98v3/cBP16AwrwwCDNklyFEwxCRNYMeF0F5jUhK2cbc8WN8DySc44US
x34PV1e+ic1tQco=
-----END CERTIFICATE-----
