Certificate:
    Data:
        Version: 3 (0x2)
        Serial Number:
            14:34:95:47:86
    Signature Algorithm: sha1WithRSAEncryption
        Issuer: C=US, ST=California, L=Dummy City, O=Dummy Organization, OU=Dummy Org Unit, CN=dummy.com/emailAddress=dummy@dummy.com
        Validity
            Not Before: Oct 25 00:00:00 2014 GMT
            Not After : Nov 27 09:25:12 2015 GMT
        Subject: C=US, ST=California, L=Mountain View, O=Google Inc, CN=*.google.com
        Subject Public Key Info:
            Public Key Algorithm: rsaEncryption
                Public-Key: (1024 bit)
                Modulus:
                    00:aa:3b:84:98:6b:52:00:be:66:87:11:43:17:dd:
                    90:11:6f:e1:0e:41:f8:af:28:1e:84:27:e9:ed:23:
                    ad:b2:c7:aa:b2:f8:15:1b:28:4a:2d:e3:b1:fc:2c:
                    5d:81:0e:3d:ce:de:de:f2:c9:c1:8e:16:ab:fc:fa:
                    b1:13:74:5c:07:39:b9:31:5e:c0:ba:db:ed:81:17:
                    2c:96:20:8f:71:b3:0a:73:07:e9:44:f1:37:f9:98:
                    23:da:ee:13:9a:08:0e:bc:26:8c:69:3c:b9:e8:bb:
                    45:1d:21:da:8b:ae:ff:4c:31:60:70:d2:f1:1b:1e:
                    c9:12:40:e1:36:0f:95:76:29
                Exponent: 65537 (0x10001)
        X509v3 extensions:
            X509v3 Subject Alternative Name: 
                DNS:*.google.com, DNS:*.android.com, DNS:*.appengine.google.com, DNS:*.cloud.google.com, DNS:*.google-analytics.com, DNS:*.google.ca, DNS:*.google.cl, DNS:*.google.co.in, DNS:*.google.co.jp, DNS:*.google.co.uk, DNS:*.google.com.ar, DNS:*.google.com.au, DNS:*.google.com.br, DNS:*.google.com.co, DNS:*.google.com.mx, DNS:*.google.com.tr, DNS:*.google.com.vn, DNS:*.google.de, DNS:*.google.es, DNS:*.google.fr, DNS:*.google.hu, DNS:*.google.it, DNS:*.google.nl, DNS:*.google.pl, DNS:*.google.pt, DNS:*.googleadapis.com, DNS:*.googleapis.cn, DNS:*.googlecommerce.com, DNS:*.googlevideo.com, DNS:*.gstatic.cn, DNS:*.gstatic.com, DNS:*.gvt1.com, DNS:*.gvt2.com, DNS:*.metric.gstatic.com, DNS:*.urchin.com, DNS:*.url.google.com, DNS:*.youtube-nocookie.com, DNS:*.youtube.com, DNS:*.youtubeeducation.com, DNS:*.ytimg.com, DNS:android.com, DNS:g.co, DNS:goo.gl, DNS:google-analytics.com, DNS:google.com, DNS:googlecommerce.com, DNS:urchin.com, DNS:youtu.be, DNS:youtube.com, DNS:youtubeeducation.com
    Signature Algorithm: sha1WithRSAEncryption
         0c:49:1d:67:a9:ba:5d:9d:8e:45:72:f8:f1:13:17:36:4f:cd:
         26:6a:61:6a:a9:17:65:af:e9:43:19:d1:29:c5:f6:a0:80:87:
         2b:02:4d:8d:22:c7:23:30:81:e2:1f:aa:1f:9a:6e:64:66:cc:
         78:e4:ae:ee:89:a7:05:71:5e:44:f6:1c:b6:49:12:ed:c8:d2:
         26:16:7d:3f:3c:71:d8:ba:25:b0:0f:40:0d:c2:52:96:9b:1a:
         29:18:d4:51:d1:7b:ee:dc:fe:6b:c8:70:4e:9f:7c:f6:fc:f2:
         54:73:3d:44:97:1d:19:76:a1:9c:70:8c:d8:61:30:4c:13:e9:
         56:89
-----BEGIN CERTIFICATE-----
MIIFsjCCBRugAwIBAgIFFDSVR4YwDQYJKoZIhvcNAQEFBQAwgaExCzAJBgNVBAYT
AlVTMRMwEQYDVQQIEwpDYWxpZm9ybmlhMRMwEQYDVQQHEwpEdW1teSBDaXR5MRsw
GQYDVQQKExJEdW1teSBPcmdhbml6YXRpb24xFzAVBgNVBAsTDkR1bW15IE9yZyBV
bml0MRIwEAYDVQQDEwlkdW1teS5jb20xHjAcBgkqhkiG9w0BCQEWD2R1bW15QGR1
bW15LmNvbTAeFw0xNDEwMjUwMDAwMDBaFw0xNTExMjcwOTI1MTJaMGYxCzAJBgNV
BAYTAlVTMRMwEQYDVQQIEwpDYWxpZm9ybmlhMRYwFAYDVQQHEw1Nb3VudGFpbiBW
aWV3MRMwEQYDVQQKEwpHb29nbGUgSW5jMRUwEwYDVQQDFAwqLmdvb2dsZS5jb20w
gZ8wDQYJKoZIhvcNAQEBBQADgY0AMIGJAoGBAKo7hJhrUgC+ZocRQxfdkBFv4Q5B
+K8oHoQn6e0jrbLHqrL4FRsoSi3jsfwsXYEOPc7e3vLJwY4Wq/z6sRN0XAc5uTFe
wLrb7YEXLJYgj3GzCnMH6UTxN/mYI9ruE5oIDrwmjGk8uei7RR0h2ouu/0wxYHDS
8RseyRJA4TYPlXYpAgMBAAGjggMuMIIDKjCCAyYGA1UdEQSCAx0wggMZggwqLmdv
b2dsZS5jb22CDSouYW5kcm9pZC5jb22CFiouYXBwZW5naW5lLmdvb2dsZS5jb22C
EiouY2xvdWQuZ29vZ2xlLmNvbYIWKi5nb29nbGUtYW5hbHl0aWNzLmNvbYILKi5n
b29nbGUuY2GCCyouZ29vZ2xlLmNsgg4qLmdvb2dsZS5jby5pboIOKi5nb29nbGUu
Y28uanCCDiouZ29vZ2xlLmNvLnVrgg8qLmdvb2dsZS5jb20uYXKCDyouZ29vZ2xl
LmNvbS5hdYIPKi5nb29nbGUuY29tLmJygg8qLmdvb2dsZS5jb20uY2+CDyouZ29v
Z2xlLmNvbS5teIIPKi5nb29nbGUuY29tLnRygg8qLmdvb2dsZS5jb20udm6CCyou
Z29vZ2xlLmRlggsqLmdvb2dsZS5lc4ILKi5nb29nbGUuZnKCCyouZ29vZ2xlLmh1
ggsqLmdvb2dsZS5pdIILKi5nb29nbGUubmyCCyouZ29vZ2xlLnBsggsqLmdvb2ds
ZS5wdIISKi5nb29nbGVhZGFwaXMuY29tgg8qLmdvb2dsZWFwaXMuY26CFCouZ29v
Z2xlY29tbWVyY2UuY29tghEqLmdvb2dsZXZpZGVvLmNvbYIMKi5nc3RhdGljLmNu
gg0qLmdzdGF0aWMuY29tggoqLmd2dDEuY29tggoqLmd2dDIuY29tghQqLm1ldHJp
Yy5nc3RhdGljLmNvbYIMKi51cmNoaW4uY29tghAqLnVybC5nb29nbGUuY29tghYq
LnlvdXR1YmUtbm9jb29raWUuY29tgg0qLnlvdXR1YmUuY29tghYqLnlvdXR1YmVl
ZHVjYXRpb24uY29tggsqLnl0aW1nLmNvbYILYW5kcm9pZC5jb22CBGcuY2+CBmdv
by5nbIIUZ29vZ2xlLWFuYWx5dGljcy5jb22CCmdvb2dsZS5jb22CEmdvb2dsZWNv
bW1lcmNlLmNvbYIKdXJjaGluLmNvbYIIeW91dHUuYmWCC3lvdXR1YmUuY29tghR5
b3V0dWJlZWR1Y2F0aW9uLmNvbTANBgkqhkiG9w0BAQUFAAOBgQAMSR1nqbpdnY5F
cvjxExc2T80mamFqqRdlr+lDGdEpxfaggIcrAk2NIscjMIHiH6ofmm5kZsx45K7u
iacFcV5E9hy2SRLtyNImFn0/PHHYuiWwD0ANwlKWmxopGNRR0Xvu3P5ryHBOn3z2
/PJUcz1Elx0ZdqGccIzYYTBME+lWiQ==
-----END CERTIFICATE-----
