Certificate:
    Data:
        Version: 3 (0x2)
        Serial Number:
            08:19:12:52:58
    Signature Algorithm: sha1WithRSAEncryption
        Issuer: C=US, ST=California, L=Dummy City, O=Dummy Organization, OU=Dummy Org Unit, CN=dummy.com/emailAddress=dummy@dummy.com
        Validity
            Not Before: Oct 25 00:00:00 2014 GMT
            Not After : Nov 27 07:26:44 2015 GMT
        Subject: C=US, ST=MA, L=Cambridge, O=Akamai Technologies, Inc., CN=a248.e.akamai.net
        Subject Public Key Info:
            Public Key Algorithm: rsaEncryption
                Public-Key: (1024 bit)
                Modulus:
                    00:da:a9:9e:64:17:df:83:b9:9a:f8:1c:3f:f2:2d:
                    61:ee:29:a7:48:7b:68:39:22:dd:57:4b:9d:1c:fa:
                    b3:ed:9e:80:34:39:e6:84:46:7c:8b:0f:07:fe:83:
                    85:35:19:1a:6f:aa:f0:9e:34:c3:ae:6d:b0:84:ac:
                    92:ea:99:f1:9a:6b:10:88:dc:ce:11:f1:d1:3b:f8:
                    39:6e:af:9b:93:7d:c6:99:f4:83:8f:72:d9:41:80:
                    01:ec:0c:cd:28:05:96:2b:9f:a2:a4:46:c1:19:16:
                    8a:55:5f:23:e3:d4:01:f2:0c:41:a1:63:68:99:93:
                    ab:26:25:f2:25:74:aa:ea:55
                Exponent: 65537 (0x10001)
        X509v3 extensions:
            X509v3 Subject Alternative Name: 
                DNS:*.akamaihd.net, DNS:*.akamaihd-staging.net, DNS:a248.e.akamai.net, DNS:*.akamaized.net, DNS:*.akamaized-staging.net
    Signature Algorithm: sha1WithRSAEncryption
         65:0f:a4:74:8f:eb:cb:bc:d0:2a:39:5a:d4:94:b8:da:87:5f:
         a5:17:9e:78:fb:6a:cf:33:e8:d2:b9:ec:a7:cf:75:e6:84:a1:
         77:96:63:a6:a2:88:d4:9a:e2:d2:00:c3:c5:b0:8d:dd:13:cc:
         54:ba:cf:c7:8d:e8:12:8a:8a:02:97:2a:9c:39:92:8e:8d:e6:
         5f:be:ed:c9:c2:b3:66:5b:7d:59:e3:4b:c2:93:a9:cb:ce:13:
         29:fb:d7:d3:b4:23:55:ee:d1:28:2a:eb:59:d6:32:24:8a:d3:
         fd:f8:f2:d3:af:d1:a7:c4:a2:61:b5:52:d2:ed:df:8b:b8:23:
         af:c2
-----BEGIN CERTIFICATE-----
MIIC/DCCAmWgAwIBAgIFCBkSUlgwDQYJKoZIhvcNAQEFBQAwgaExCzAJBgNVBAYT
AlVTMRMwEQYDVQQIEwpDYWxpZm9ybmlhMRMwEQYDVQQHEwpEdW1teSBDaXR5MRsw
GQYDVQQKExJEdW1teSBPcmdhbml6YXRpb24xFzAVBgNVBAsTDkR1bW15IE9yZyBV
bml0MRIwEAYDVQQDEwlkdW1teS5jb20xHjAcBgkqhkiG9w0BCQEWD2R1bW15QGR1
bW15LmNvbTAeFw0xNDEwMjUwMDAwMDBaFw0xNTExMjcwNzI2NDRaMG4xCzAJBgNV
BAYTAlVTMQswCQYDVQQIEwJNQTESMBAGA1UEBxMJQ2FtYnJpZGdlMSIwIAYDVQQK
ExlBa2FtYWkgVGVjaG5vbG9naWVzLCBJbmMuMRowGAYDVQQDExFhMjQ4LmUuYWth
bWFpLm5ldDCBnzANBgkqhkiG9w0BAQEFAAOBjQAwgYkCgYEA2qmeZBffg7ma+Bw/
8i1h7imnSHtoOSLdV0udHPqz7Z6ANDnmhEZ8iw8H/oOFNRkab6rwnjTDrm2whKyS
6pnxmmsQiNzOEfHRO/g5bq+bk33GmfSDj3LZQYAB7AzNKAWWK5+ipEbBGRaKVV8j
49QB8gxBoWNomZOrJiXyJXSq6lUCAwEAAaNyMHAwbgYDVR0RBGcwZYIOKi5ha2Ft
YWloZC5uZXSCFiouYWthbWFpaGQtc3RhZ2luZy5uZXSCEWEyNDguZS5ha2FtYWku
bmV0gg8qLmFrYW1haXplZC5uZXSCFyouYWthbWFpemVkLXN0YWdpbmcubmV0MA0G
CSqGSIb3DQEBBQUAA4GBAGUPpHSP68u80Co5WtSUuNqHX6UXnnj7as8z6NK57KfP
deaEoXeWY6aiiNSa4tIAw8Wwjd0TzFS6z8eN6BKKigKXKpw5ko6N5l++7cnCs2Zb
fVnjS8KTqcvOEyn719O0I1Xu0Sgq61nWMiSK0/348tOv0afEomG1UtLt34u4I6/C
-----END CERTIFICATE-----
