Certificate:
    Data:
        Version: 3 (0x2)
        Serial Number:
            08:01:10:66:74
    Signature Algorithm: sha1WithRSAEncryption
        Issuer: C=US, ST=California, L=Dummy City, O=Dummy Organization, OU=Dummy Org Unit, CN=dummy.com/emailAddress=dummy@dummy.com
        Validity
            Not Before: Oct 25 00:00:00 2014 GMT
            Not After : Nov 27 09:32:33 2015 GMT
        Subject: C=US, ST=MA, L=Cambridge, O=Akamai Technologies, Inc., CN=a248.e.akamai.net
        Subject Public Key Info:
            Public Key Algorithm: rsaEncryption
                Public-Key: (1024 bit)
                Modulus:
                    00:c2:0c:4e:64:01:7a:02:09:77:7b:b3:35:3a:cb:
                    b4:19:12:7e:8b:d2:d9:e8:0c:bf:d7:f3:c3:52:26:
                    49:9c:79:19:2e:58:51:62:a8:7c:75:82:81:f1:b4:
                    cb:75:5e:30:a5:7d:02:5a:49:ae:ec:52:f3:bf:97:
                    f6:18:d8:b8:b5:d5:4b:01:2b:b1:0f:8c:41:43:3e:
                    de:ea:06:3f:4f:7e:03:5f:78:c4:0e:7b:bb:33:44:
                    72:75:f1:39:a2:5f:bf:9e:6b:b3:6e:53:3a:80:8c:
                    f4:95:59:5b:60:90:a4:79:8d:f6:01:21:05:91:71:
                    dd:93:19:cc:08:68:65:25:55
                Exponent: 65537 (0x10001)
        X509v3 extensions:
            X509v3 Subject Alternative Name: 
                DNS:*.akamaihd.net, DNS:*.akamaihd-staging.net, DNS:a248.e.akamai.net, DNS:*.akamaized.net, DNS:*.akamaized-staging.net
    Signature Algorithm: sha1WithRSAEncryption
         60:2d:bf:d3:15:10:8d:67:0c:5c:70:1f:84:3a:e5:64:b5:f4:
         3c:bc:00:3e:0e:7b:87:74:dc:99:2d:4a:ed:6c:e6:32:22:5a:
         b5:69:1f:2f:7b:08:61:76:1f:97:cc:d3:49:1e:d6:6a:ca:44:
         59:96:07:8d:cc:46:8b:eb:63:f5:67:28:83:ec:ae:ca:e1:68:
         cb:b6:9a:f7:54:80:fe:26:8b:d9:d1:c3:76:aa:3a:d9:8b:7b:
         cb:c7:eb:ed:bf:24:39:56:8f:53:51:df:8c:19:c6:cf:c5:e0:
         69:35:97:57:cd:f8:09:6f:49:84:fc:98:80:6d:e3:00:1d:23:
         27:7b
-----BEGIN CERTIFICATE-----
MIIC/DCCAmWgAwIBAgIFCAEQZnQwDQYJKoZIhvcNAQEFBQAwgaExCzAJBgNVBAYT
AlVTMRMwEQYDVQQIEwpDYWxpZm9ybmlhMRMwEQYDVQQHEwpEdW1teSBDaXR5MRsw
GQYDVQQKExJEdW1teSBPcmdhbml6YXRpb24xFzAVBgNVBAsTDkR1bW15IE9yZyBV
bml0MRIwEAYDVQQDEwlkdW1teS5jb20xHjAcBgkqhkiG9w0BCQEWD2R1bW15QGR1
bW15LmNvbTAeFw0xNDEwMjUwMDAwMDBaFw0xNTExMjcwOTMyMzNaMG4xCzAJBgNV
BAYTAlVTMQswCQYDVQQIEwJNQTESMBAGA1UEBxMJQ2FtYnJpZGdlMSIwIAYDVQQK
ExlBa2FtYWkgVGVjaG5vbG9naWVzLCBJbmMuMRowGAYDVQQDExFhMjQ4LmUuYWth
bWFpLm5ldDCBnzANBgkqhkiG9w0BAQEFAAOBjQAwgYkCgYEAwgxOZAF6Agl3e7M1
Osu0GRJ+i9LZ6Ay/1/PDUiZJnHkZLlhRYqh8dYKB8bTLdV4wpX0CWkmu7FLzv5f2
GNi4tdVLASuxD4xBQz7e6gY/T34DX3jEDnu7M0RydfE5ol+/nmuzblM6gIz0lVlb
YJCkeY32ASEFkXHdkxnMCGhlJVUCAwEAAaNyMHAwbgYDVR0RBGcwZYIOKi5ha2Ft
YWloZC5uZXSCFiouYWthbWFpaGQtc3RhZ2luZy5uZXSCEWEyNDguZS5ha2FtYWku
bmV0gg8qLmFrYW1haXplZC5uZXSCFyouYWthbWFpemVkLXN0YWdpbmcubmV0MA0G
CSqGSIb3DQEBBQUAA4GBAGAtv9MVEI1nDFxwH4Q65WS19Dy8AD4Oe4d03JktSu1s
5jIiWrVpHy97CGF2H5fM00ke1mrKRFmWB43MRovrY/VnKIPsrsrhaMu2mvdUgP4m
i9nRw3aqOtmLe8vH6+2/JDlWj1NR34wZxs/F4Gk1l1fN+AlvSYT8mIBt4wAdIyd7
-----END CERTIFICATE-----
