Certificate:
    Data:
        Version: 3 (0x2)
        Serial Number:
            16:53:21:66:73
    Signature Algorithm: sha1WithRSAEncryption
        Issuer: C=US, ST=California, L=Dummy City, O=Dummy Organization, OU=Dummy Org Unit, CN=dummy.com/emailAddress=dummy@dummy.com
        Validity
            Not Before: Oct 25 00:00:00 2014 GMT
            Not After : Nov 27 05:51:46 2015 GMT
        Subject: C=US, ST=California, L=Mountain View, O=Google Inc, CN=www.google.com
        Subject Public Key Info:
            Public Key Algorithm: rsaEncryption
                Public-Key: (1024 bit)
                Modulus:
                    00:9b:64:ac:5c:ce:48:75:9c:0f:a3:08:ee:41:45:
                    ab:38:2e:26:98:f9:1b:2d:d5:6e:dc:22:87:05:1e:
                    91:a0:41:9e:f5:11:17:2a:e5:dd:70:11:61:3b:ed:
                    c8:e6:87:99:2a:ec:c6:2e:2c:db:1e:16:72:8b:5c:
                    97:f5:fd:c3:8e:a3:22:cf:57:dc:a5:ad:fa:88:80:
                    d9:f3:6b:93:e9:99:ea:2b:52:fd:46:1e:42:e4:1f:
                    2d:0f:5c:5d:9d:b9:8f:50:b0:5f:ab:86:4b:34:86:
                    9a:ff:69:0b:f9:81:27:2e:aa:c9:39:8b:61:9d:cb:
                    e2:5f:5f:fb:cc:e9:62:6d:af
                Exponent: 65537 (0x10001)
        X509v3 extensions:
            X509v3 Subject Alternative Name: 
                DNS:www.google.com
    Signature Algorithm: sha1WithRSAEncryption
         54:e4:01:50:9e:55:7d:e1:5d:2a:dc:80:55:2e:84:84:a6:2c:
         f9:e6:4e:ff:9b:4e:58:2f:90:ef:0d:d7:21:68:a7:b5:ac:ee:
         1d:07:da:6b:cb:8f:ea:63:bd:f0:58:50:7f:a9:33:83:47:5e:
         28:3c:39:fc:dc:be:c1:2c:7a:e7:88:f5:b6:8f:ee:51:56:91:
         6a:4a:9f:42:0a:38:52:06:ef:d3:da:d7:a4:81:c5:8a:68:dc:
         a6:b7:f0:7f:b5:17:6f:a4:e0:5b:8c:40:42:a1:fa:75:c4:d1:
         65:09:0e:88:b3:d2:ad:be:7d:df:16:1a:e6:fd:97:41:e1:a2:
         76:8a
-----BEGIN CERTIFICATE-----
MIICoTCCAgqgAwIBAgIFFlMhZnMwDQYJKoZIhvcNAQEFBQAwgaExCzAJBgNVBAYT
AlVTMRMwEQYDVQQIEwpDYWxpZm9ybmlhMRMwEQYDVQQHEwpEdW1teSBDaXR5MRsw
GQYDVQQKExJEdW1teSBPcmdhbml6YXRpb24xFzAVBgNVBAsTDkR1bW15IE9yZyBV
bml0MRIwEAYDVQQDEwlkdW1teS5jb20xHjAcBgkqhkiG9w0BCQEWD2R1bW15QGR1
bW15LmNvbTAeFw0xNDEwMjUwMDAwMDBaFw0xNTExMjcwNTUxNDZaMGgxCzAJBgNV
BAYTAlVTMRMwEQYDVQQIEwpDYWxpZm9ybmlhMRYwFAYDVQQHEw1Nb3VudGFpbiBW
aWV3MRMwEQYDVQQKEwpHb29nbGUgSW5jMRcwFQYDVQQDEw53d3cuZ29vZ2xlLmNv
bTCBnzANBgkqhkiG9w0BAQEFAAOBjQAwgYkCgYEAm2SsXM5IdZwPowjuQUWrOC4m
mPkbLdVu3CKHBR6RoEGe9REXKuXdcBFhO+3I5oeZKuzGLizbHhZyi1yX9f3DjqMi
z1fcpa36iIDZ82uT6ZnqK1L9Rh5C5B8tD1xdnbmPULBfq4ZLNIaa/2kL+YEnLqrJ
OYthncviX1/7zOliba8CAwEAAaMdMBswGQYDVR0RBBIwEIIOd3d3Lmdvb2dsZS5j
b20wDQYJKoZIhvcNAQEFBQADgYEAVOQBUJ5VfeFdKtyAVS6EhKYs+eZO/5tOWC+Q
7w3XIWintazuHQfaa8uP6mO98FhQf6kzg0deKDw5/Ny+wSx654j1to/uUVaRakqf
Qgo4Ugbv09rXpIHFimjcprfwf7UXb6TgW4xAQqH6dcTRZQkOiLPSrb593xYa5v2X
QeGidoo=
-----END CERTIFICATE-----
