Certificate:
    Data:
        Version: 3 (0x2)
        Serial Number:
            25:89:66:97:18
    Signature Algorithm: sha1WithRSAEncryption
        Issuer: C=US, ST=California, L=Dummy City, O=Dummy Organization, OU=Dummy Org Unit, CN=dummy.com/emailAddress=dummy@dummy.com
        Validity
            Not Before: Oct 25 00:00:00 2014 GMT
            Not After : Nov 27 07:26:41 2015 GMT
        Subject: OU=Domain Control Validated, CN=*.sitebeacon.co
        Subject Public Key Info:
            Public Key Algorithm: rsaEncryption
                Public-Key: (1024 bit)
                Modulus:
                    00:c9:6d:01:9e:77:17:ae:63:71:81:4e:4d:31:bb:
                    00:4c:a3:a6:ec:5b:0b:63:1e:3c:8e:47:7f:49:f2:
                    a7:f3:17:28:b2:1b:ab:62:1a:91:e5:17:64:17:b9:
                    eb:c2:18:8a:da:2b:db:ef:0e:f3:a0:50:f4:33:2c:
                    67:7f:8f:97:2c:44:0c:d6:9b:82:6f:5b:d7:93:83:
                    5e:87:60:34:40:66:45:34:e8:e2:3a:bb:53:8d:c0:
                    22:f1:da:6c:05:17:86:2b:16:fb:89:22:00:4a:6e:
                    d9:fb:09:28:94:3a:3b:22:65:94:3f:a3:6e:f4:23:
                    42:48:31:99:79:70:27:b2:01
                Exponent: 65537 (0x10001)
        X509v3 extensions:
            X509v3 Subject Alternative Name: 
                DNS:*.sitebeacon.co, DNS:sitebeacon.co
    Signature Algorithm: sha1WithRSAEncryption
         76:d3:4d:39:52:ff:78:e4:ff:fa:e1:0f:23:fd:ca:32:41:dd:
         94:79:6f:38:89:a7:07:5b:1b:99:ae:41:0b:20:f1:0e:18:1c:
         ea:3c:be:c6:e1:05:50:f4:d9:bb:e9:97:c0:df:97:65:ab:82:
         60:98:13:f0:dd:b8:00:c2:d1:c9:0a:7e:7d:ae:c5:27:1d:b8:
         a2:1e:fd:07:20:38:a3:6e:b8:05:c7:83:fc:d9:60:06:62:d6:
         02:98:35:c1:86:b9:43:11:54:6a:bb:be:1b:c0:b2:d9:43:fa:
         71:3b:55:bb:48:82:8d:d1:a5:a8:aa:74:2f:6e:e3:5d:73:4f:
         62:fd
-----BEGIN CERTIFICATE-----
MIIChjCCAe+gAwIBAgIFJYlmlxgwDQYJKoZIhvcNAQEFBQAwgaExCzAJBgNVBAYT
AlVTMRMwEQYDVQQIEwpDYWxpZm9ybmlhMRMwEQYDVQQHEwpEdW1teSBDaXR5MRsw
GQYDVQQKExJEdW1teSBPcmdhbml6YXRpb24xFzAVBgNVBAsTDkR1bW15IE9yZyBV
bml0MRIwEAYDVQQDEwlkdW1teS5jb20xHjAcBgkqhkiG9w0BCQEWD2R1bW15QGR1
bW15LmNvbTAeFw0xNDEwMjUwMDAwMDBaFw0xNTExMjcwNzI2NDFaMD0xITAfBgNV
BAsTGERvbWFpbiBDb250cm9sIFZhbGlkYXRlZDEYMBYGA1UEAxQPKi5zaXRlYmVh
Y29uLmNvMIGfMA0GCSqGSIb3DQEBAQUAA4GNADCBiQKBgQDJbQGedxeuY3GBTk0x
uwBMo6bsWwtjHjyOR39J8qfzFyiyG6tiGpHlF2QXuevCGIraK9vvDvOgUPQzLGd/
j5csRAzWm4JvW9eTg16HYDRAZkU06OI6u1ONwCLx2mwFF4YrFvuJIgBKbtn7CSiU
OjsiZZQ/o270I0JIMZl5cCeyAQIDAQABoy0wKzApBgNVHREEIjAggg8qLnNpdGVi
ZWFjb24uY2+CDXNpdGViZWFjb24uY28wDQYJKoZIhvcNAQEFBQADgYEAdtNNOVL/
eOT/+uEPI/3KMkHdlHlvOImnB1sbma5BCyDxDhgc6jy+xuEFUPTZu+mXwN+XZauC
YJgT8N24AMLRyQp+fa7FJx24oh79ByA4o264BceD/NlgBmLWApg1wYa5QxFUaru+
G8Cy2UP6cTtVu0iCjdGlqKp0L27jXXNPYv0=
-----END CERTIFICATE-----
