Certificate:
    Data:
        Version: 3 (0x2)
        Serial Number:
            26:99:97:22:22
    Signature Algorithm: sha1WithRSAEncryption
        Issuer: C=US, ST=California, L=Dummy City, O=Dummy Organization, OU=Dummy Org Unit, CN=dummy.com/emailAddress=dummy@dummy.com
        Validity
            Not Before: Oct 25 00:00:00 2014 GMT
            Not After : Nov 27 07:26:42 2015 GMT
        Subject: OU=Domain Control Validated, CN=*.gravatar.com
        Subject Public Key Info:
            Public Key Algorithm: rsaEncryption
                Public-Key: (1024 bit)
                Modulus:
                    00:df:0e:57:51:79:05:cc:9d:d4:30:67:bf:26:84:
                    72:19:3a:a7:2c:90:f2:9e:75:9c:a9:4d:27:92:a5:
                    e3:2f:42:3c:79:66:7b:f7:89:a1:3e:8d:2c:91:42:
                    ad:6a:f7:19:dd:e5:c2:b9:66:c2:bb:26:5d:83:73:
                    25:8f:37:f3:9e:0a:98:5f:8c:f3:35:30:29:97:e8:
                    41:6b:e9:c9:c0:5f:f9:3d:b7:b3:b2:5a:cb:93:bf:
                    e5:ea:96:c8:6d:15:2a:6d:0c:5c:a6:7e:22:50:f5:
                    a8:e1:c7:ef:e3:b0:e9:f3:63:69:4a:37:b2:39:92:
                    af:88:a8:e6:ab:46:93:b5:87
                Exponent: 65537 (0x10001)
        X509v3 extensions:
            X509v3 Subject Alternative Name: 
                DNS:*.gravatar.com, DNS:gravatar.com
    Signature Algorithm: sha1WithRSAEncryption
         8c:d9:31:5c:fc:0c:de:04:b9:37:33:55:06:20:6c:78:fc:31:
         b9:fc:ba:c6:2c:ab:59:f2:43:0b:93:8d:cf:18:95:f0:13:5c:
         62:77:74:47:e0:bb:74:9e:aa:71:bc:20:55:18:9c:09:5f:fb:
         9e:65:ef:eb:1b:9f:16:ff:ae:1c:25:e2:58:9f:bf:02:d1:f5:
         07:4c:00:de:7e:d0:8f:ab:a5:5c:4a:a7:cf:5e:e8:61:33:a7:
         03:dd:88:06:9e:49:a0:6d:9b:62:d8:a8:72:ac:43:60:13:bd:
         18:3b:72:6c:07:fc:f4:ad:6d:29:ea:59:bc:d7:87:13:38:5c:
         a9:b0
-----BEGIN CERTIFICATE-----
MIICgzCCAeygAwIBAgIFJpmXIiIwDQYJKoZIhvcNAQEFBQAwgaExCzAJBgNVBAYT
AlVTMRMwEQYDVQQIEwpDYWxpZm9ybmlhMRMwEQYDVQQHEwpEdW1teSBDaXR5MRsw
GQYDVQQKExJEdW1teSBPcmdhbml6YXRpb24xFzAVBgNVBAsTDkR1bW15IE9yZyBV
bml0MRIwEAYDVQQDEwlkdW1teS5jb20xHjAcBgkqhkiG9w0BCQEWD2R1bW15QGR1
bW15LmNvbTAeFw0xNDEwMjUwMDAwMDBaFw0xNTExMjcwNzI2NDJaMDwxITAfBgNV
BAsTGERvbWFpbiBDb250cm9sIFZhbGlkYXRlZDEXMBUGA1UEAxQOKi5ncmF2YXRh
ci5jb20wgZ8wDQYJKoZIhvcNAQEBBQADgY0AMIGJAoGBAN8OV1F5Bcyd1DBnvyaE
chk6pyyQ8p51nKlNJ5Kl4y9CPHlme/eJoT6NLJFCrWr3Gd3lwrlmwrsmXYNzJY83
854KmF+M8zUwKZfoQWvpycBf+T23s7Jay5O/5eqWyG0VKm0MXKZ+IlD1qOHH7+Ow
6fNjaUo3sjmSr4io5qtGk7WHAgMBAAGjKzApMCcGA1UdEQQgMB6CDiouZ3JhdmF0
YXIuY29tggxncmF2YXRhci5jb20wDQYJKoZIhvcNAQEFBQADgYEAjNkxXPwM3gS5
NzNVBiBsePwxufy6xiyrWfJDC5ONzxiV8BNcYnd0R+C7dJ6qcbwgVRicCV/7nmXv
6xufFv+uHCXiWJ+/AtH1B0wA3n7Qj6ulXEqnz17oYTOnA92IBp5JoG2bYtiocqxD
YBO9GDtybAf89K1tKepZvNeHEzhcqbA=
-----END CERTIFICATE-----
