Certificate:
    Data:
        Version: 3 (0x2)
        Serial Number:
            02:53:16:06:66
    Signature Algorithm: sha1WithRSAEncryption
        Issuer: C=US, ST=California, L=Dummy City, O=Dummy Organization, OU=Dummy Org Unit, CN=dummy.com/emailAddress=dummy@dummy.com
        Validity
            Not Before: Oct 25 00:00:00 2014 GMT
            Not After : Nov 27 09:17:36 2015 GMT
        Subject: C=US, ST=California, L=San Francisco, O=Fastly, Inc., CN=www.github.com
        Subject Public Key Info:
            Public Key Algorithm: rsaEncryption
                Public-Key: (1024 bit)
                Modulus:
                    00:c5:51:11:12:47:1d:e8:cc:06:8f:fb:be:46:45:
                    d7:e2:97:fc:e3:98:38:f5:f4:f8:9a:65:a6:34:7f:
                    66:ec:5d:7a:db:5a:1f:9a:d4:26:41:c3:13:ff:94:
                    e6:14:17:ac:38:85:b9:7f:11:49:b4:0c:59:ff:a5:
                    5a:2c:fb:06:41:6a:9e:34:66:98:8e:34:c8:97:44:
                    c8:c6:6d:3e:a1:b5:43:14:5d:20:19:90:0a:d2:70:
                    56:09:11:7a:89:fc:78:bd:3d:37:c5:21:f9:6e:25:
                    e8:7f:c3:29:0e:a8:23:06:73:8c:1b:34:60:0e:e9:
                    e1:39:8a:d8:4e:b2:6c:ca:5d
                Exponent: 65537 (0x10001)
        X509v3 extensions:
            X509v3 Subject Alternative Name: 
                DNS:www.github.com, DNS:*.github.com, DNS:*.github.io, DNS:*.githubusercontent.com
    Signature Algorithm: sha1WithRSAEncryption
         4b:71:35:e2:85:0d:ad:92:e1:9f:c5:fc:2c:98:15:19:c3:d1:
         4e:d1:dd:c4:0e:0e:5a:f3:12:25:54:78:72:75:09:3c:e9:5c:
         e0:65:38:68:e7:af:07:cc:77:9c:df:b4:6e:07:74:af:7c:0b:
         8b:e2:50:7e:a6:4a:5c:d3:c5:ef:55:53:2c:23:34:d3:22:43:
         4b:0e:41:92:2c:16:91:5e:49:71:d3:f4:17:d6:27:77:6d:ce:
         06:5a:3e:0e:3c:4f:ad:74:a7:4e:7e:50:c5:5f:60:4c:37:fd:
         ac:a6:2c:1f:ef:f8:ae:6c:30:89:c3:77:d7:44:db:d6:0d:49:
         1d:ed
-----BEGIN CERTIFICATE-----
MIIC1zCCAkCgAwIBAgIFAlMWBmYwDQYJKoZIhvcNAQEFBQAwgaExCzAJBgNVBAYT
AlVTMRMwEQYDVQQIEwpDYWxpZm9ybmlhMRMwEQYDVQQHEwpEdW1teSBDaXR5MRsw
GQYDVQQKExJEdW1teSBPcmdhbml6YXRpb24xFzAVBgNVBAsTDkR1bW15IE9yZyBV
bml0MRIwEAYDVQQDEwlkdW1teS5jb20xHjAcBgkqhkiG9w0BCQEWD2R1bW15QGR1
bW15LmNvbTAeFw0xNDEwMjUwMDAwMDBaFw0xNTExMjcwOTE3MzZaMGoxCzAJBgNV
BAYTAlVTMRMwEQYDVQQIEwpDYWxpZm9ybmlhMRYwFAYDVQQHEw1TYW4gRnJhbmNp
c2NvMRUwEwYDVQQKEwxGYXN0bHksIEluYy4xFzAVBgNVBAMTDnd3dy5naXRodWIu
Y29tMIGfMA0GCSqGSIb3DQEBAQUAA4GNADCBiQKBgQDFURESRx3ozAaP+75GRdfi
l/zjmDj19PiaZaY0f2bsXXrbWh+a1CZBwxP/lOYUF6w4hbl/EUm0DFn/pVos+wZB
ap40ZpiONMiXRMjGbT6htUMUXSAZkArScFYJEXqJ/Hi9PTfFIfluJeh/wykOqCMG
c4wbNGAO6eE5ithOsmzKXQIDAQABo1EwTzBNBgNVHREERjBEgg53d3cuZ2l0aHVi
LmNvbYIMKi5naXRodWIuY29tggsqLmdpdGh1Yi5pb4IXKi5naXRodWJ1c2VyY29u
dGVudC5jb20wDQYJKoZIhvcNAQEFBQADgYEAS3E14oUNrZLhn8X8LJgVGcPRTtHd
xA4OWvMSJVR4cnUJPOlc4GU4aOevB8x3nN+0bgd0r3wLi+JQfqZKXNPF71VTLCM0
0yJDSw5BkiwWkV5JcdP0F9Ynd23OBlo+DjxPrXSnTn5QxV9gTDf9rKYsH+/4rmww
icN310Tb1g1JHe0=
-----END CERTIFICATE-----
