Certificate:
    Data:
        Version: 3 (0x2)
        Serial Number:
            23:67:89:63:23
    Signature Algorithm: sha1WithRSAEncryption
        Issuer: C=US, ST=California, L=Dummy City, O=Dummy Organization, OU=Dummy Org Unit, CN=dummy.com/emailAddress=dummy@dummy.com
        Validity
            Not Before: Oct 25 00:00:00 2014 GMT
            Not After : Nov 27 05:51:45 2015 GMT
        Subject: C=US, ST=California, L=Mountain View, O=Google Inc, CN=*.google.com
        Subject Public Key Info:
            Public Key Algorithm: rsaEncryption
                Public-Key: (1024 bit)
                Modulus:
                    00:ba:52:75:49:fc:22:40:36:d2:23:95:ec:03:a7:
                    10:94:ea:a2:48:b4:7c:35:4d:2a:ed:35:dc:55:87:
                    8f:0a:56:fd:2a:a8:07:29:f4:e1:9b:3f:5a:b1:a1:
                    6b:3a:d7:b8:b4:43:9c:da:d8:24:6f:7b:de:dc:5d:
                    e5:de:14:84:a9:53:ac:c6:35:ab:7f:bb:d6:00:2a:
                    ce:5c:6e:71:4f:e6:9b:65:b3:1f:4c:09:c9:cc:98:
                    e6:01:bf:70:c7:80:2c:8d:25:23:77:12:02:20:be:
                    e7:f6:74:1b:f6:79:c3:2b:e6:f8:7c:17:14:46:7a:
                    23:cb:30:5b:f2:b0:e4:39:fd
                Exponent: 65537 (0x10001)
        X509v3 extensions:
            X509v3 Subject Alternative Name: 
                DNS:*.google.com, DNS:*.android.com, DNS:*.appengine.google.com, DNS:*.cloud.google.com, DNS:*.google-analytics.com, DNS:*.google.ca, DNS:*.google.cl, DNS:*.google.co.in, DNS:*.google.co.jp, DNS:*.google.co.uk, DNS:*.google.com.ar, DNS:*.google.com.au, DNS:*.google.com.br, DNS:*.google.com.co, DNS:*.google.com.mx, DNS:*.google.com.tr, DNS:*.google.com.vn, DNS:*.google.de, DNS:*.google.es, DNS:*.google.fr, DNS:*.google.hu, DNS:*.google.it, DNS:*.google.nl, DNS:*.google.pl, DNS:*.google.pt, DNS:*.googleadapis.com, DNS:*.googleapis.cn, DNS:*.googlecommerce.com, DNS:*.googlevideo.com, DNS:*.gstatic.cn, DNS:*.gstatic.com, DNS:*.gvt1.com, DNS:*.gvt2.com, DNS:*.metric.gstatic.com, DNS:*.urchin.com, DNS:*.url.google.com, DNS:*.youtube-nocookie.com, DNS:*.youtube.com, DNS:*.youtubeeducation.com, DNS:*.ytimg.com, DNS:android.com, DNS:g.co, DNS:goo.gl, DNS:google-analytics.com, DNS:google.com, DNS:googlecommerce.com, DNS:urchin.com, DNS:youtu.be, DNS:youtube.com, DNS:youtubeeducation.com
    Signature Algorithm: sha1WithRSAEncryption
         94:f9:4f:34:da:ba:0c:10:49:56:bf:29:16:47:f7:62:97:11:
         65:98:57:e5:4f:7f:b5:32:c7:d9:a0:7e:9d:bb:24:e4:de:ff:
         ed:c5:74:1b:a5:50:db:06:27:bd:a7:fd:05:54:ab:fa:62:a2:
         b3:09:6f:37:a8:0e:11:46:55:1a:5f:fe:67:a9:93:fa:71:be:
         e1:4f:b0:07:34:25:8a:35:cc:8d:17:d9:77:36:dd:7c:e7:6a:
         52:1b:64:09:97:1d:75:b5:14:58:3e:77:ee:46:74:87:74:e4:
         1c:d0:4c:ef:e9:75:63:f1:2f:5a:d8:6b:35:82:52:0d:44:67:
         a9:c1
-----BEGIN CERTIFICATE-----
MIIFsjCCBRugAwIBAgIFI2eJYyMwDQYJKoZIhvcNAQEFBQAwgaExCzAJBgNVBAYT
AlVTMRMwEQYDVQQIEwpDYWxpZm9ybmlhMRMwEQYDVQQHEwpEdW1teSBDaXR5MRsw
GQYDVQQKExJEdW1teSBPcmdhbml6YXRpb24xFzAVBgNVBAsTDkR1bW15IE9yZyBV
bml0MRIwEAYDVQQDEwlkdW1teS5jb20xHjAcBgkqhkiG9w0BCQEWD2R1bW15QGR1
bW15LmNvbTAeFw0xNDEwMjUwMDAwMDBaFw0xNTExMjcwNTUxNDVaMGYxCzAJBgNV
BAYTAlVTMRMwEQYDVQQIEwpDYWxpZm9ybmlhMRYwFAYDVQQHEw1Nb3VudGFpbiBW
aWV3MRMwEQYDVQQKEwpHb29nbGUgSW5jMRUwEwYDVQQDFAwqLmdvb2dsZS5jb20w
gZ8wDQYJKoZIhvcNAQEBBQADgY0AMIGJAoGBALpSdUn8IkA20iOV7AOnEJTqoki0
fDVNKu013FWHjwpW/SqoByn04Zs/WrGhazrXuLRDnNrYJG973txd5d4UhKlTrMY1
q3+71gAqzlxucU/mm2WzH0wJycyY5gG/cMeALI0lI3cSAiC+5/Z0G/Z5wyvm+HwX
FEZ6I8swW/Kw5Dn9AgMBAAGjggMuMIIDKjCCAyYGA1UdEQSCAx0wggMZggwqLmdv
b2dsZS5jb22CDSouYW5kcm9pZC5jb22CFiouYXBwZW5naW5lLmdvb2dsZS5jb22C
EiouY2xvdWQuZ29vZ2xlLmNvbYIWKi5nb29nbGUtYW5hbHl0aWNzLmNvbYILKi5n
b29nbGUuY2GCCyouZ29vZ2xlLmNsgg4qLmdvb2dsZS5jby5pboIOKi5nb29nbGUu
Y28uanCCDiouZ29vZ2xlLmNvLnVrgg8qLmdvb2dsZS5jb20uYXKCDyouZ29vZ2xl
LmNvbS5hdYIPKi5nb29nbGUuY29tLmJygg8qLmdvb2dsZS5jb20uY2+CDyouZ29v
Z2xlLmNvbS5teIIPKi5nb29nbGUuY29tLnRygg8qLmdvb2dsZS5jb20udm6CCyou
Z29vZ2xlLmRlggsqLmdvb2dsZS5lc4ILKi5nb29nbGUuZnKCCyouZ29vZ2xlLmh1
ggsqLmdvb2dsZS5pdIILKi5nb29nbGUubmyCCyouZ29vZ2xlLnBsggsqLmdvb2ds
ZS5wdIISKi5nb29nbGVhZGFwaXMuY29tgg8qLmdvb2dsZWFwaXMuY26CFCouZ29v
Z2xlY29tbWVyY2UuY29tghEqLmdvb2dsZXZpZGVvLmNvbYIMKi5nc3RhdGljLmNu
gg0qLmdzdGF0aWMuY29tggoqLmd2dDEuY29tggoqLmd2dDIuY29tghQqLm1ldHJp
Yy5nc3RhdGljLmNvbYIMKi51cmNoaW4uY29tghAqLnVybC5nb29nbGUuY29tghYq
LnlvdXR1YmUtbm9jb29raWUuY29tgg0qLnlvdXR1YmUuY29tghYqLnlvdXR1YmVl
ZHVjYXRpb24uY29tggsqLnl0aW1nLmNvbYILYW5kcm9pZC5jb22CBGcuY2+CBmdv
by5nbIIUZ29vZ2xlLWFuYWx5dGljcy5jb22CCmdvb2dsZS5jb22CEmdvb2dsZWNv
bW1lcmNlLmNvbYIKdXJjaGluLmNvbYIIeW91dHUuYmWCC3lvdXR1YmUuY29tghR5
b3V0dWJlZWR1Y2F0aW9uLmNvbTANBgkqhkiG9w0BAQUFAAOBgQCU+U802roMEElW
vykWR/dilxFlmFflT3+1MsfZoH6duyTk3v/txXQbpVDbBie9p/0FVKv6YqKzCW83
qA4RRlUaX/5nqZP6cb7hT7AHNCWKNcyNF9l3Nt1852pSG2QJlx11tRRYPnfuRnSH
dOQc0Ezv6XVj8S9a2Gs1glINRGepwQ==
-----END CERTIFICATE-----
