Certificate:
    Data:
        Version: 3 (0x2)
        Serial Number:
            30:18:90:13:29
    Signature Algorithm: sha1WithRSAEncryption
        Issuer: C=US, ST=California, L=Dummy City, O=Dummy Organization, OU=Dummy Org Unit, CN=dummy.com/emailAddress=dummy@dummy.com
        Validity
            Not Before: Oct 25 00:00:00 2014 GMT
            Not After : Nov 27 05:52:05 2015 GMT
        Subject: C=US, ST=California, L=Mountain View, O=Google Inc, CN=accounts.google.com
        Subject Public Key Info:
            Public Key Algorithm: rsaEncryption
                Public-Key: (1024 bit)
                Modulus:
                    00:a4:a4:4c:27:8f:63:31:44:04:3c:d6:0b:eb:44:
                    06:c2:bf:01:ee:79:94:cf:58:ef:4d:58:8a:19:73:
                    69:57:f5:a1:72:aa:7d:34:36:cd:67:ea:eb:e5:e2:
                    6b:b1:95:2e:54:29:5c:2a:3f:7a:27:15:6a:eb:97:
                    97:80:17:64:af:1e:ac:47:7b:e2:52:26:3a:70:d3:
                    b4:df:af:0b:ca:35:92:76:51:a8:f8:a5:80:47:46:
                    6c:ce:bb:95:6b:17:ad:8f:18:dd:11:7f:3f:31:67:
                    80:d6:58:0d:d5:70:ae:bd:a6:5f:a7:c3:5e:74:39:
                    e8:21:1f:af:dd:c7:d9:78:15
                Exponent: 65537 (0x10001)
        X509v3 extensions:
            X509v3 Subject Alternative Name: 
                DNS:accounts.google.com
    Signature Algorithm: sha1WithRSAEncryption
         ac:fd:63:74:3f:99:34:78:1b:02:9f:d9:93:7b:92:53:92:62:
         68:ef:99:1d:bf:11:5e:a8:20:38:27:f9:98:a3:b5:05:f7:c2:
         05:54:c1:1a:4f:b2:fd:25:18:e6:c3:cf:a2:2d:6f:d4:af:45:
         cf:9e:73:db:74:65:53:7f:c2:c4:84:97:b6:0b:c6:d7:f4:61:
         71:8e:05:c0:69:d5:ca:dc:e3:1e:6b:9e:1a:27:d5:53:4b:7e:
         57:ef:a3:b7:fa:d6:cf:ea:89:c4:32:fd:11:f2:d5:fa:aa:c9:
         38:ac:b2:72:3d:2c:57:32:9e:bd:59:a3:02:69:83:8c:cc:87:
         19:75
-----BEGIN CERTIFICATE-----
MIICqzCCAhSgAwIBAgIFMBiQEykwDQYJKoZIhvcNAQEFBQAwgaExCzAJBgNVBAYT
AlVTMRMwEQYDVQQIEwpDYWxpZm9ybmlhMRMwEQYDVQQHEwpEdW1teSBDaXR5MRsw
GQYDVQQKExJEdW1teSBPcmdhbml6YXRpb24xFzAVBgNVBAsTDkR1bW15IE9yZyBV
bml0MRIwEAYDVQQDEwlkdW1teS5jb20xHjAcBgkqhkiG9w0BCQEWD2R1bW15QGR1
bW15LmNvbTAeFw0xNDEwMjUwMDAwMDBaFw0xNTExMjcwNTUyMDVaMG0xCzAJBgNV
BAYTAlVTMRMwEQYDVQQIEwpDYWxpZm9ybmlhMRYwFAYDVQQHEw1Nb3VudGFpbiBW
aWV3MRMwEQYDVQQKEwpHb29nbGUgSW5jMRwwGgYDVQQDExNhY2NvdW50cy5nb29n
bGUuY29tMIGfMA0GCSqGSIb3DQEBAQUAA4GNADCBiQKBgQCkpEwnj2MxRAQ81gvr
RAbCvwHueZTPWO9NWIoZc2lX9aFyqn00Ns1n6uvl4muxlS5UKVwqP3onFWrrl5eA
F2SvHqxHe+JSJjpw07TfrwvKNZJ2Uaj4pYBHRmzOu5VrF62PGN0Rfz8xZ4DWWA3V
cK69pl+nw150OeghH6/dx9l4FQIDAQABoyIwIDAeBgNVHREEFzAVghNhY2NvdW50
cy5nb29nbGUuY29tMA0GCSqGSIb3DQEBBQUAA4GBAKz9Y3Q/mTR4GwKf2ZN7klOS
YmjvmR2/EV6oIDgn+ZijtQX3wgVUwRpPsv0lGObDz6Itb9SvRc+ec9t0ZVN/wsSE
l7YLxtf0YXGOBcBp1crc4x5rnhon1VNLflfvo7f61s/qicQy/RHy1fqqyTissnI9
LFcynr1ZowJpg4zMhxl1
-----END CERTIFICATE-----
