Certificate:
    Data:
        Version: 3 (0x2)
        Serial Number:
            12:34:32:50:87
    Signature Algorithm: sha1WithRSAEncryption
        Issuer: C=US, ST=California, L=Dummy City, O=Dummy Organization, OU=Dummy Org Unit, CN=dummy.com/emailAddress=dummy@dummy.com
        Validity
            Not Before: Oct 25 00:00:00 2014 GMT
            Not After : Nov 27 05:53:04 2015 GMT
        Subject: OU=GT30390087, CN=*.crdui.com
        Subject Public Key Info:
            Public Key Algorithm: rsaEncryption
                Public-Key: (1024 bit)
                Modulus:
                    00:c0:4a:e8:8e:04:64:48:3a:f5:06:51:e6:b5:4e:
                    11:cd:4f:8d:95:c1:f0:ae:af:d3:88:65:7f:12:c3:
                    2c:66:9c:5a:a3:2a:b8:4f:cd:30:7b:b4:38:d7:d8:
                    6b:c8:45:75:b9:dc:aa:de:17:d6:7e:f6:bc:94:23:
                    fd:9f:cf:d4:bd:ac:a7:9f:7b:27:ed:b9:95:e4:e8:
                    27:1b:5d:8b:49:d8:22:26:ba:f5:a8:34:03:48:5d:
                    57:7c:60:6f:15:99:86:3c:06:85:eb:f4:e2:54:e3:
                    93:d1:09:8f:1c:3f:30:59:5d:06:6c:6e:82:67:9a:
                    89:ba:7f:5c:e7:ce:6c:3d:45
                Exponent: 65537 (0x10001)
        X509v3 extensions:
            X509v3 Subject Alternative Name: 
                DNS:*.crdui.com, DNS:crdui.com
    Signature Algorithm: sha1WithRSAEncryption
         16:97:1d:a5:80:cd:99:3b:4c:b4:dd:ed:06:2e:a1:65:63:80:
         cd:5d:70:b5:9e:4a:d3:da:7f:4f:ed:8c:8f:60:0d:97:1d:ed:
         a0:72:ca:60:c5:7e:3f:7f:0b:8f:9e:db:d8:47:8b:63:09:73:
         2b:cc:8e:79:88:26:78:0e:22:03:d3:b9:40:d1:80:75:76:73:
         7f:12:e7:7b:12:55:79:bf:56:f6:33:7b:2d:9f:c0:4f:8e:9b:
         e0:4e:a9:6f:43:ba:90:f3:a1:2b:1b:70:27:4b:5f:2c:de:66:
         a7:15:39:e0:5c:92:fd:95:67:bb:a7:97:69:c9:06:82:bb:1b:
         51:9e
-----BEGIN CERTIFICATE-----
MIICbDCCAdWgAwIBAgIFEjQyUIcwDQYJKoZIhvcNAQEFBQAwgaExCzAJBgNVBAYT
AlVTMRMwEQYDVQQIEwpDYWxpZm9ybmlhMRMwEQYDVQQHEwpEdW1teSBDaXR5MRsw
GQYDVQQKExJEdW1teSBPcmdhbml6YXRpb24xFzAVBgNVBAsTDkR1bW15IE9yZyBV
bml0MRIwEAYDVQQDEwlkdW1teS5jb20xHjAcBgkqhkiG9w0BCQEWD2R1bW15QGR1
bW15LmNvbTAeFw0xNDEwMjUwMDAwMDBaFw0xNTExMjcwNTUzMDRaMCsxEzARBgNV
BAsTCkdUMzAzOTAwODcxFDASBgNVBAMUCyouY3JkdWkuY29tMIGfMA0GCSqGSIb3
DQEBAQUAA4GNADCBiQKBgQDASuiOBGRIOvUGUea1ThHNT42VwfCur9OIZX8Swyxm
nFqjKrhPzTB7tDjX2GvIRXW53KreF9Z+9ryUI/2fz9S9rKefeyftuZXk6CcbXYtJ
2CImuvWoNANIXVd8YG8VmYY8BoXr9OJU45PRCY8cPzBZXQZsboJnmom6f1znzmw9
RQIDAQABoyUwIzAhBgNVHREEGjAYggsqLmNyZHVpLmNvbYIJY3JkdWkuY29tMA0G
CSqGSIb3DQEBBQUAA4GBABaXHaWAzZk7TLTd7QYuoWVjgM1dcLWeStPaf0/tjI9g
DZcd7aByymDFfj9/C4+e29hHi2MJcyvMjnmIJngOIgPTuUDRgHV2c38S53sSVXm/
VvYzey2fwE+Om+BOqW9DupDzoSsbcCdLXyzeZqcVOeBckv2VZ7unl2nJBoK7G1Ge
-----END CERTIFICATE-----
