Certificate:
    Data:
        Version: 3 (0x2)
        Serial Number:
            26:66:07:88:47
    Signature Algorithm: sha1WithRSAEncryption
        Issuer: C=US, ST=California, L=Dummy City, O=Dummy Organization, OU=Dummy Org Unit, CN=dummy.com/emailAddress=dummy@dummy.com
        Validity
            Not Before: Oct 25 00:00:00 2014 GMT
            Not After : Nov 27 05:51:47 2015 GMT
        Subject: C=US, ST=California, L=Mountain View, O=Google Inc, CN=*.googleapis.com
        Subject Public Key Info:
            Public Key Algorithm: rsaEncryption
                Public-Key: (1024 bit)
                Modulus:
                    00:e1:d4:f7:cc:0e:96:17:ef:89:a0:da:40:ab:3c:
                    09:e9:b5:2d:f4:03:e2:e6:75:04:dd:8f:65:12:d4:
                    3c:82:9f:b3:15:3f:d2:c3:ef:ce:ad:64:5a:f8:4b:
                    c6:b7:1e:c6:1b:9c:6b:55:00:da:59:71:75:ec:17:
                    ff:1b:89:15:ea:8c:50:8c:89:46:9a:e8:93:93:9a:
                    ab:ef:19:86:d3:d1:a1:3d:99:e2:a2:5f:84:ae:47:
                    70:f5:83:62:56:a1:41:57:45:16:be:10:0a:f4:84:
                    26:82:9c:62:4e:e8:4a:49:ff:de:35:5b:06:b9:5f:
                    71:77:f7:7b:38:29:78:7a:65
                Exponent: 65537 (0x10001)
        X509v3 extensions:
            X509v3 Subject Alternative Name: 
                DNS:*.googleapis.com, DNS:*.cloudendpointsapis.com, DNS:cloudendpointsapis.com, DNS:googleapis.com
    Signature Algorithm: sha1WithRSAEncryption
         03:9b:bf:15:d7:cc:23:0b:3c:6c:cc:c4:2f:ec:17:71:7a:e8:
         a6:73:a4:40:ee:27:40:8d:e7:63:6c:70:22:c7:0c:36:03:c8:
         77:e9:cd:59:dd:b1:a4:9a:9f:81:47:d2:a9:80:cd:ff:2c:6a:
         9e:af:d7:25:e2:0c:2c:d0:c5:b3:15:d0:26:dd:d1:4d:87:ee:
         2b:83:51:67:5e:b2:7f:af:59:9f:d9:10:a1:5f:e1:1f:60:59:
         94:02:87:b0:43:9f:20:b5:e3:52:bf:97:a3:33:1a:80:c2:de:
         18:1f:76:71:11:a5:72:20:ed:d9:43:5a:4a:bc:2e:ef:0c:11:
         84:93
-----BEGIN CERTIFICATE-----
MIIC5zCCAlCgAwIBAgIFJmYHiEcwDQYJKoZIhvcNAQEFBQAwgaExCzAJBgNVBAYT
AlVTMRMwEQYDVQQIEwpDYWxpZm9ybmlhMRMwEQYDVQQHEwpEdW1teSBDaXR5MRsw
GQYDVQQKExJEdW1teSBPcmdhbml6YXRpb24xFzAVBgNVBAsTDkR1bW15IE9yZyBV
bml0MRIwEAYDVQQDEwlkdW1teS5jb20xHjAcBgkqhkiG9w0BCQEWD2R1bW15QGR1
bW15LmNvbTAeFw0xNDEwMjUwMDAwMDBaFw0xNTExMjcwNTUxNDdaMGoxCzAJBgNV
BAYTAlVTMRMwEQYDVQQIEwpDYWxpZm9ybmlhMRYwFAYDVQQHEw1Nb3VudGFpbiBW
aWV3MRMwEQYDVQQKEwpHb29nbGUgSW5jMRkwFwYDVQQDFBAqLmdvb2dsZWFwaXMu
Y29tMIGfMA0GCSqGSIb3DQEBAQUAA4GNADCBiQKBgQDh1PfMDpYX74mg2kCrPAnp
tS30A+LmdQTdj2US1DyCn7MVP9LD786tZFr4S8a3HsYbnGtVANpZcXXsF/8biRXq
jFCMiUaa6JOTmqvvGYbT0aE9meKiX4SuR3D1g2JWoUFXRRa+EAr0hCaCnGJO6EpJ
/941Wwa5X3F393s4KXh6ZQIDAQABo2EwXzBdBgNVHREEVjBUghAqLmdvb2dsZWFw
aXMuY29tghgqLmNsb3VkZW5kcG9pbnRzYXBpcy5jb22CFmNsb3VkZW5kcG9pbnRz
YXBpcy5jb22CDmdvb2dsZWFwaXMuY29tMA0GCSqGSIb3DQEBBQUAA4GBAAObvxXX
zCMLPGzMxC/sF3F66KZzpEDuJ0CN52NscCLHDDYDyHfpzVndsaSan4FH0qmAzf8s
ap6v1yXiDCzQxbMV0Cbd0U2H7iuDUWdesn+vWZ/ZEKFf4R9gWZQCh7BDnyC141K/
l6MzGoDC3hgfdnERpXIg7dlDWkq8Lu8MEYST
-----END CERTIFICATE-----
