Certificate:
    Data:
        Version: 3 (0x2)
        Serial Number:
            20:16:28:67:83
    Signature Algorithm: sha1WithRSAEncryption
        Issuer: C=US, ST=California, L=Dummy City, O=Dummy Organization, OU=Dummy Org Unit, CN=dummy.com/emailAddress=dummy@dummy.com
        Validity
            Not Before: Oct 25 00:00:00 2014 GMT
            Not After : Nov 27 09:03:06 2015 GMT
        Subject: OU=Domain Control Validated, CN=*.travis-ci.org
        Subject Public Key Info:
            Public Key Algorithm: rsaEncryption
                Public-Key: (1024 bit)
                Modulus:
                    00:90:c1:c6:1e:98:49:8e:61:95:77:c6:e2:10:31:
                    1a:0e:b6:d9:3c:9e:d6:97:af:ed:1b:b5:f5:3d:e4:
                    cf:6d:70:60:68:91:98:7a:95:78:27:ed:37:5c:8c:
                    29:5c:6a:17:ea:e6:c1:08:2d:7b:af:13:43:6c:0f:
                    f6:7f:cf:c1:10:10:dc:8c:b1:b4:4c:83:7f:dc:68:
                    0a:50:80:70:a7:95:43:89:14:d1:40:dc:bd:c2:84:
                    d9:ae:33:a4:13:07:8d:97:bc:fa:39:45:9c:88:b7:
                    ba:a4:bd:57:3a:1c:31:0f:44:47:c2:f6:34:32:86:
                    7d:1c:b4:02:6d:2c:c2:92:5d
                Exponent: 65537 (0x10001)
        X509v3 extensions:
            X509v3 Subject Alternative Name: 
                DNS:*.travis-ci.org, DNS:travis-ci.org
    Signature Algorithm: sha1WithRSAEncryption
         6b:61:f9:12:8f:03:89:44:b5:40:ba:9b:76:1b:37:0a:aa:5b:
         ae:a0:00:1d:2e:b6:73:f0:3b:d6:d5:8b:91:d0:1a:2d:8b:84:
         8d:b5:1f:9d:9a:bd:95:b6:8c:75:f5:ca:54:46:48:d5:4f:46:
         56:b5:ce:b6:24:48:f2:a2:fd:01:f0:10:60:6f:f3:85:00:39:
         61:76:a4:e5:75:9c:bd:bb:6d:e0:ee:de:ae:7b:15:49:c8:7b:
         7a:9e:fb:5c:4b:68:72:50:20:f6:89:97:fb:c6:05:e5:53:60:
         9e:b8:ef:45:be:4f:c9:0e:b9:02:fd:10:7d:a7:50:11:68:bf:
         00:66
-----BEGIN CERTIFICATE-----
MIIChjCCAe+gAwIBAgIFIBYoZ4MwDQYJKoZIhvcNAQEFBQAwgaExCzAJBgNVBAYT
AlVTMRMwEQYDVQQIEwpDYWxpZm9ybmlhMRMwEQYDVQQHEwpEdW1teSBDaXR5MRsw
GQYDVQQKExJEdW1teSBPcmdhbml6YXRpb24xFzAVBgNVBAsTDkR1bW15IE9yZyBV
bml0MRIwEAYDVQQDEwlkdW1teS5jb20xHjAcBgkqhkiG9w0BCQEWD2R1bW15QGR1
bW15LmNvbTAeFw0xNDEwMjUwMDAwMDBaFw0xNTExMjcwOTAzMDZaMD0xITAfBgNV
BAsTGERvbWFpbiBDb250cm9sIFZhbGlkYXRlZDEYMBYGA1UEAxQPKi50cmF2aXMt
Y2kub3JnMIGfMA0GCSqGSIb3DQEBAQUAA4GNADCBiQKBgQCQwcYemEmOYZV3xuIQ
MRoOttk8ntaXr+0btfU95M9tcGBokZh6lXgn7TdcjClcahfq5sEILXuvE0NsD/Z/
z8EQENyMsbRMg3/caApQgHCnlUOJFNFA3L3ChNmuM6QTB42XvPo5RZyIt7qkvVc6
HDEPREfC9jQyhn0ctAJtLMKSXQIDAQABoy0wKzApBgNVHREEIjAggg8qLnRyYXZp
cy1jaS5vcmeCDXRyYXZpcy1jaS5vcmcwDQYJKoZIhvcNAQEFBQADgYEAa2H5Eo8D
iUS1QLqbdhs3CqpbrqAAHS62c/A71tWLkdAaLYuEjbUfnZq9lbaMdfXKVEZI1U9G
VrXOtiRI8qL9AfAQYG/zhQA5YXak5XWcvbtt4O7ernsVSch7ep77XEtoclAg9omX
+8YF5VNgnrjvRb5PyQ65Av0QfadQEWi/AGY=
-----END CERTIFICATE-----
