Certificate:
    Data:
        Version: 3 (0x2)
        Serial Number:
            06:31:83:48:57
    Signature Algorithm: sha1WithRSAEncryption
        Issuer: C=US, ST=California, L=Dummy City, O=Dummy Organization, OU=Dummy Org Unit, CN=dummy.com/emailAddress=dummy@dummy.com
        Validity
            Not Before: Oct 25 00:00:00 2014 GMT
            Not After : Nov 27 09:18:05 2015 GMT
        Subject: C=US, ST=California, L=San Francisco, O=Fastly, Inc., CN=www.github.com
        Subject Public Key Info:
            Public Key Algorithm: rsaEncryption
                Public-Key: (1024 bit)
                Modulus:
                    00:d5:d8:62:67:dd:1d:df:81:1e:7a:0b:f5:c2:33:
                    0d:6d:1e:78:72:71:a1:cf:25:4c:7a:93:b8:f2:ea:
                    6f:36:93:73:71:76:2b:b5:f4:dc:b5:a9:bb:e5:41:
                    88:2e:d2:85:42:4f:b9:cc:8e:f3:ab:35:35:0d:8d:
                    25:6a:f9:e4:f3:8e:a8:00:26:e4:9b:7f:84:83:c2:
                    20:f7:9f:55:d7:48:1e:b6:69:d3:71:e7:f3:76:df:
                    2b:e1:ed:b1:63:54:7c:e7:a4:75:09:1a:3b:8e:5f:
                    63:9b:09:c1:0f:ca:24:6e:2f:c4:ae:77:66:b9:bf:
                    45:89:ce:24:32:aa:83:b1:8f
                Exponent: 65537 (0x10001)
        X509v3 extensions:
            X509v3 Subject Alternative Name: 
                DNS:www.github.com, DNS:*.github.com, DNS:*.github.io, DNS:*.githubusercontent.com
    Signature Algorithm: sha1WithRSAEncryption
         b1:de:db:a2:a5:57:83:1a:d4:b3:00:e7:b9:78:25:ea:71:2e:
         09:cd:0a:11:87:64:f9:c1:eb:d2:0e:db:41:b0:c7:94:15:47:
         04:25:0f:30:ef:e7:7f:c7:93:98:10:4f:7e:b4:c8:4a:3d:62:
         10:b1:b9:9e:e9:1b:ee:b3:ee:67:6f:b7:cf:ab:d4:67:83:c9:
         0e:e4:3a:9b:71:99:a6:93:8a:32:da:58:e9:da:80:93:4a:db:
         ec:19:30:02:1c:58:4f:15:5a:c9:02:18:d8:8b:13:20:5a:5a:
         d4:80:b3:dd:29:9f:75:d8:e0:cf:74:8c:f1:63:9e:dd:bf:18:
         86:34
-----BEGIN CERTIFICATE-----
MIIC1zCCAkCgAwIBAgIFBjGDSFcwDQYJKoZIhvcNAQEFBQAwgaExCzAJBgNVBAYT
AlVTMRMwEQYDVQQIEwpDYWxpZm9ybmlhMRMwEQYDVQQHEwpEdW1teSBDaXR5MRsw
GQYDVQQKExJEdW1teSBPcmdhbml6YXRpb24xFzAVBgNVBAsTDkR1bW15IE9yZyBV
bml0MRIwEAYDVQQDEwlkdW1teS5jb20xHjAcBgkqhkiG9w0BCQEWD2R1bW15QGR1
bW15LmNvbTAeFw0xNDEwMjUwMDAwMDBaFw0xNTExMjcwOTE4MDVaMGoxCzAJBgNV
BAYTAlVTMRMwEQYDVQQIEwpDYWxpZm9ybmlhMRYwFAYDVQQHEw1TYW4gRnJhbmNp
c2NvMRUwEwYDVQQKEwxGYXN0bHksIEluYy4xFzAVBgNVBAMTDnd3dy5naXRodWIu
Y29tMIGfMA0GCSqGSIb3DQEBAQUAA4GNADCBiQKBgQDV2GJn3R3fgR56C/XCMw1t
HnhycaHPJUx6k7jy6m82k3Nxdiu19Ny1qbvlQYgu0oVCT7nMjvOrNTUNjSVq+eTz
jqgAJuSbf4SDwiD3n1XXSB62adNx5/N23yvh7bFjVHznpHUJGjuOX2ObCcEPyiRu
L8Sud2a5v0WJziQyqoOxjwIDAQABo1EwTzBNBgNVHREERjBEgg53d3cuZ2l0aHVi
LmNvbYIMKi5naXRodWIuY29tggsqLmdpdGh1Yi5pb4IXKi5naXRodWJ1c2VyY29u
dGVudC5jb20wDQYJKoZIhvcNAQEFBQADgYEAsd7boqVXgxrUswDnuXgl6nEuCc0K
EYdk+cHr0g7bQbDHlBVHBCUPMO/nf8eTmBBPfrTISj1iELG5nukb7rPuZ2+3z6vU
Z4PJDuQ6m3GZppOKMtpY6dqAk0rb7BkwAhxYTxVayQIY2IsTIFpa1ICz3Smfddjg
z3SM8WOe3b8YhjQ=
-----END CERTIFICATE-----
