Certificate:
    Data:
        Version: 3 (0x2)
        Serial Number:
            18:15:89:69:31
    Signature Algorithm: sha1WithRSAEncryption
        Issuer: C=US, ST=California, L=Dummy City, O=Dummy Organization, OU=Dummy Org Unit, CN=dummy.com/emailAddress=dummy@dummy.com
        Validity
            Not Before: Oct 25 00:00:00 2014 GMT
            Not After : Nov 27 07:11:46 2015 GMT
        Subject: C=US, ST=California, L=San Jose, O=Adobe Systems Incorporated, OU=Adobe Marketing Cloud, CN=*.everesttech.net
        Subject Public Key Info:
            Public Key Algorithm: rsaEncryption
                Public-Key: (1024 bit)
                Modulus:
                    00:bf:c6:2c:6f:8c:59:72:fc:97:7f:f7:71:a4:15:
                    2f:20:4d:58:7f:59:02:5d:e9:c4:ca:f3:60:b7:63:
                    93:f1:a1:e0:85:22:f6:96:d4:b7:b1:2b:ba:fc:07:
                    71:b7:99:01:a9:63:52:d2:6a:de:4b:a0:b7:e9:b1:
                    44:62:20:66:b9:d0:fd:9c:f9:2a:f7:04:27:0f:43:
                    c5:d6:d4:f1:37:7e:c6:b4:ca:3d:a9:b0:1b:ca:08:
                    39:28:a3:56:11:19:d7:b1:de:ec:0d:ae:63:0e:88:
                    a1:9c:f1:53:06:1a:8e:d9:fd:f6:8a:01:5a:8d:5a:
                    77:7c:9d:3e:3c:fc:29:40:f1
                Exponent: 65537 (0x10001)
        X509v3 extensions:
            X509v3 Subject Alternative Name: 
                DNS:*.everesttech.net, DNS:everesttech.net
    Signature Algorithm: sha1WithRSAEncryption
         34:5a:e0:9c:5c:41:11:f2:46:27:9f:1e:25:9f:30:47:c0:7d:
         34:69:a5:a7:52:73:be:ad:75:be:e8:9c:d4:45:99:a2:85:2a:
         0d:9c:25:0c:91:98:15:5c:ca:d1:c8:61:09:74:78:ad:56:9b:
         e4:46:fe:7a:4f:e7:88:37:dd:20:50:d7:f9:8f:9a:b0:03:1b:
         c8:74:b0:6d:ef:69:b4:bf:3c:fe:7e:e4:a3:5e:0d:60:0e:3a:
         af:55:0d:f1:46:a8:3f:a8:e9:be:b7:22:80:70:fd:82:04:69:
         61:e9:28:36:be:55:f6:74:e3:3a:18:df:12:f6:fe:49:a2:62:
         58:4d
-----BEGIN CERTIFICATE-----
MIIC5DCCAk2gAwIBAgIFGBWJaTEwDQYJKoZIhvcNAQEFBQAwgaExCzAJBgNVBAYT
AlVTMRMwEQYDVQQIEwpDYWxpZm9ybmlhMRMwEQYDVQQHEwpEdW1teSBDaXR5MRsw
GQYDVQQKExJEdW1teSBPcmdhbml6YXRpb24xFzAVBgNVBAsTDkR1bW15IE9yZyBV
bml0MRIwEAYDVQQDEwlkdW1teS5jb20xHjAcBgkqhkiG9w0BCQEWD2R1bW15QGR1
bW15LmNvbTAeFw0xNDEwMjUwMDAwMDBaFw0xNTExMjcwNzExNDZaMIGWMQswCQYD
VQQGEwJVUzETMBEGA1UECBMKQ2FsaWZvcm5pYTERMA8GA1UEBxMIU2FuIEpvc2Ux
IzAhBgNVBAoTGkFkb2JlIFN5c3RlbXMgSW5jb3Jwb3JhdGVkMR4wHAYDVQQLExVB
ZG9iZSBNYXJrZXRpbmcgQ2xvdWQxGjAYBgNVBAMUESouZXZlcmVzdHRlY2gubmV0
MIGfMA0GCSqGSIb3DQEBAQUAA4GNADCBiQKBgQC/xixvjFly/Jd/93GkFS8gTVh/
WQJd6cTK82C3Y5PxoeCFIvaW1LexK7r8B3G3mQGpY1LSat5LoLfpsURiIGa50P2c
+Sr3BCcPQ8XW1PE3fsa0yj2psBvKCDkoo1YRGdex3uwNrmMOiKGc8VMGGo7Z/faK
AVqNWnd8nT48/ClA8QIDAQABozEwLzAtBgNVHREEJjAkghEqLmV2ZXJlc3R0ZWNo
Lm5ldIIPZXZlcmVzdHRlY2gubmV0MA0GCSqGSIb3DQEBBQUAA4GBADRa4JxcQRHy
RiefHiWfMEfAfTRppadSc76tdb7onNRFmaKFKg2cJQyRmBVcytHIYQl0eK1Wm+RG
/npP54g33SBQ1/mPmrADG8h0sG3vabS/PP5+5KNeDWAOOq9VDfFGqD+o6b63IoBw
/YIEaWHpKDa+VfZ04zoY3xL2/kmiYlhN
-----END CERTIFICATE-----
