Certificate:
    Data:
        Version: 3 (0x2)
        Serial Number: 2434302548 (0x91188254)
    Signature Algorithm: sha1WithRSAEncryption
        Issuer: C=US, ST=California, L=Dummy City, O=Dummy Organization, OU=Dummy Org Unit, CN=dummy.com/emailAddress=dummy@dummy.com
        Validity
            Not Before: Oct 25 00:00:00 2014 GMT
            Not After : Nov 27 06:07:41 2015 GMT
        Subject: C=US, ST=California, L=Mountain View, O=Google Inc, CN=*.googleusercontent.com
        Subject Public Key Info:
            Public Key Algorithm: rsaEncryption
                Public-Key: (1024 bit)
                Modulus:
                    00:a5:b6:ca:f3:9c:1e:44:bd:fd:7b:d0:94:c4:9f:
                    d7:ff:0e:1f:71:d9:55:27:37:89:03:26:6a:5c:4b:
                    2e:01:23:88:30:df:e7:6a:4a:34:4c:92:8c:d5:25:
                    21:4d:a4:c3:a0:5f:14:57:29:05:cc:01:93:b1:f4:
                    c0:6e:03:ff:a9:c9:e9:14:c3:bb:3f:4c:40:e6:60:
                    97:cd:4a:01:c3:81:37:16:75:7c:fd:97:75:86:50:
                    d8:3a:56:4a:56:31:a1:be:78:0f:e6:94:8c:ca:fb:
                    ac:64:83:7a:23:c5:f1:bb:6c:3d:e0:52:99:c1:c2:
                    33:4a:b4:70:b0:cf:2a:d9:2d
                Exponent: 65537 (0x10001)
        X509v3 extensions:
            X509v3 Subject Alternative Name: 
                DNS:*.googleusercontent.com, DNS:*.blogspot.com, DNS:*.bp.blogspot.com, DNS:*.commondatastorage.googleapis.com, DNS:*.doubleclickusercontent.com, DNS:*.ggpht.com, DNS:*.googledrive.com, DNS:*.googlesyndication.com, DNS:*.sandbox.googleusercontent.com, DNS:*.storage.googleapis.com, DNS:blogspot.com, DNS:bp.blogspot.com, DNS:commondatastorage.googleapis.com, DNS:doubleclickusercontent.com, DNS:ggpht.com, DNS:googledrive.com, DNS:googleusercontent.com, DNS:static.panoramio.com.storage.googleapis.com, DNS:storage.googleapis.com
    Signature Algorithm: sha1WithRSAEncryption
         8b:39:45:4b:1e:b1:d4:5b:17:3c:bc:8c:b4:30:92:da:e7:1b:
         0d:a8:dd:b5:87:67:18:52:fb:d0:bc:ff:06:33:46:f2:c6:dd:
         a0:06:33:64:fe:5c:eb:56:a0:54:b3:89:1c:35:aa:74:32:bd:
         68:2a:f4:ba:50:22:35:bf:65:df:d0:15:fe:69:03:7d:08:dc:
         f3:74:a7:c6:a2:c4:b5:a8:15:b4:33:42:7a:f8:37:95:be:a4:
         ee:d0:65:8c:63:c6:92:4b:1c:76:d4:66:d2:38:ba:ac:fa:3a:
         ed:eb:3e:ab:9b:ee:57:49:de:59:57:ed:e5:6a:a4:6e:0d:5a:
         91:78
-----BEGIN CERTIFICATE-----
MIIEazCCA9SgAwIBAgIFAJEYglQwDQYJKoZIhvcNAQEFBQAwgaExCzAJBgNVBAYT
AlVTMRMwEQYDVQQIEwpDYWxpZm9ybmlhMRMwEQYDVQQHEwpEdW1teSBDaXR5MRsw
GQYDVQQKExJEdW1teSBPcmdhbml6YXRpb24xFzAVBgNVBAsTDkR1bW15IE9yZyBV
bml0MRIwEAYDVQQDEwlkdW1teS5jb20xHjAcBgkqhkiG9w0BCQEWD2R1bW15QGR1
bW15LmNvbTAeFw0xNDEwMjUwMDAwMDBaFw0xNTExMjcwNjA3NDFaMHExCzAJBgNV
BAYTAlVTMRMwEQYDVQQIEwpDYWxpZm9ybmlhMRYwFAYDVQQHEw1Nb3VudGFpbiBW
aWV3MRMwEQYDVQQKEwpHb29nbGUgSW5jMSAwHgYDVQQDFBcqLmdvb2dsZXVzZXJj
b250ZW50LmNvbTCBnzANBgkqhkiG9w0BAQEFAAOBjQAwgYkCgYEApbbK85weRL39
e9CUxJ/X/w4fcdlVJzeJAyZqXEsuASOIMN/nako0TJKM1SUhTaTDoF8UVykFzAGT
sfTAbgP/qcnpFMO7P0xA5mCXzUoBw4E3FnV8/Zd1hlDYOlZKVjGhvngP5pSMyvus
ZIN6I8Xxu2w94FKZwcIzSrRwsM8q2S0CAwEAAaOCAdwwggHYMIIB1AYDVR0RBIIB
yzCCAceCFyouZ29vZ2xldXNlcmNvbnRlbnQuY29tgg4qLmJsb2dzcG90LmNvbYIR
Ki5icC5ibG9nc3BvdC5jb22CIiouY29tbW9uZGF0YXN0b3JhZ2UuZ29vZ2xlYXBp
cy5jb22CHCouZG91YmxlY2xpY2t1c2VyY29udGVudC5jb22CCyouZ2dwaHQuY29t
ghEqLmdvb2dsZWRyaXZlLmNvbYIXKi5nb29nbGVzeW5kaWNhdGlvbi5jb22CHyou
c2FuZGJveC5nb29nbGV1c2VyY29udGVudC5jb22CGCouc3RvcmFnZS5nb29nbGVh
cGlzLmNvbYIMYmxvZ3Nwb3QuY29tgg9icC5ibG9nc3BvdC5jb22CIGNvbW1vbmRh
dGFzdG9yYWdlLmdvb2dsZWFwaXMuY29tghpkb3VibGVjbGlja3VzZXJjb250ZW50
LmNvbYIJZ2dwaHQuY29tgg9nb29nbGVkcml2ZS5jb22CFWdvb2dsZXVzZXJjb250
ZW50LmNvbYIrc3RhdGljLnBhbm9yYW1pby5jb20uc3RvcmFnZS5nb29nbGVhcGlz
LmNvbYIWc3RvcmFnZS5nb29nbGVhcGlzLmNvbTANBgkqhkiG9w0BAQUFAAOBgQCL
OUVLHrHUWxc8vIy0MJLa5xsNqN21h2cYUvvQvP8GM0byxt2gBjNk/lzrVqBUs4kc
Nap0Mr1oKvS6UCI1v2Xf0BX+aQN9CNzzdKfGosS1qBW0M0J6+DeVvqTu0GWMY8aS
Sxx21GbSOLqs+jrt6z6rm+5XSd5ZV+3laqRuDVqReA==
-----END CERTIFICATE-----
