Certificate:
    Data:
        Version: 3 (0x2)
        Serial Number:
            35:39:81:51:30
    Signature Algorithm: sha1WithRSAEncryption
        Issuer: C=US, ST=California, L=Dummy City, O=Dummy Organization, OU=Dummy Org Unit, CN=dummy.com/emailAddress=dummy@dummy.com
        Validity
            Not Before: Oct 25 00:00:00 2014 GMT
            Not After : Nov 27 09:18:08 2015 GMT
        Subject: C=US, ST=California, L=San Francisco, O=GitHub, Inc., CN=github.com
        Subject Public Key Info:
            Public Key Algorithm: rsaEncryption
                Public-Key: (1024 bit)
                Modulus:
                    00:c7:49:b3:e8:8c:1c:c7:e6:75:30:dd:80:8f:ff:
                    61:64:1a:c2:63:ae:2a:21:62:a5:bb:cd:04:f6:0e:
                    db:d8:37:42:1f:4d:d8:d1:8e:99:78:74:26:25:f4:
                    bb:04:0d:f8:af:9a:75:ff:23:f7:d3:9b:42:7c:c7:
                    8e:0d:f4:56:d6:1c:75:94:fe:e2:80:6e:57:f8:37:
                    9f:20:e3:11:94:44:6b:0b:c7:42:64:54:6c:f6:c2:
                    4c:c4:4c:22:46:67:06:5c:a5:58:1c:a3:2f:c5:0a:
                    d6:fe:d5:7d:6b:90:0c:27:03:df:8d:14:59:5e:64:
                    72:d2:38:56:c9:06:90:5e:b9
                Exponent: 65537 (0x10001)
        X509v3 extensions:
            X509v3 Subject Alternative Name: 
                DNS:github.com, DNS:www.github.com
    Signature Algorithm: sha1WithRSAEncryption
         a3:8a:90:38:a4:64:d6:b1:72:1f:67:ce:84:4c:51:02:f8:95:
         10:65:23:9b:0b:5d:58:50:e6:9c:25:70:52:67:30:51:96:7c:
         16:57:f9:e5:5f:1e:10:1c:fb:94:35:31:24:40:7e:55:21:06:
         8e:e0:08:58:5c:d6:42:5b:ae:54:48:f5:4c:95:13:f6:ca:ca:
         a3:2e:02:00:e3:03:8f:69:3e:55:49:a5:ce:24:6e:1d:10:30:
         83:5a:16:99:ba:ed:53:20:3e:50:78:c9:24:f6:47:82:a1:21:
         af:52:2d:22:88:a0:16:07:7d:06:3f:c5:e8:58:dc:f3:01:ed:
         43:76
-----BEGIN CERTIFICATE-----
MIICqzCCAhSgAwIBAgIFNTmBUTAwDQYJKoZIhvcNAQEFBQAwgaExCzAJBgNVBAYT
AlVTMRMwEQYDVQQIEwpDYWxpZm9ybmlhMRMwEQYDVQQHEwpEdW1teSBDaXR5MRsw
GQYDVQQKExJEdW1teSBPcmdhbml6YXRpb24xFzAVBgNVBAsTDkR1bW15IE9yZyBV
bml0MRIwEAYDVQQDEwlkdW1teS5jb20xHjAcBgkqhkiG9w0BCQEWD2R1bW15QGR1
bW15LmNvbTAeFw0xNDEwMjUwMDAwMDBaFw0xNTExMjcwOTE4MDhaMGYxCzAJBgNV
BAYTAlVTMRMwEQYDVQQIEwpDYWxpZm9ybmlhMRYwFAYDVQQHEw1TYW4gRnJhbmNp
c2NvMRUwEwYDVQQKEwxHaXRIdWIsIEluYy4xEzARBgNVBAMTCmdpdGh1Yi5jb20w
gZ8wDQYJKoZIhvcNAQEBBQADgY0AMIGJAoGBAMdJs+iMHMfmdTDdgI//YWQawmOu
KiFipbvNBPYO29g3Qh9N2NGOmXh0JiX0uwQN+K+adf8j99ObQnzHjg30VtYcdZT+
4oBuV/g3nyDjEZREawvHQmRUbPbCTMRMIkZnBlylWByjL8UK1v7VfWuQDCcD340U
WV5kctI4VskGkF65AgMBAAGjKTAnMCUGA1UdEQQeMByCCmdpdGh1Yi5jb22CDnd3
dy5naXRodWIuY29tMA0GCSqGSIb3DQEBBQUAA4GBAKOKkDikZNaxch9nzoRMUQL4
lRBlI5sLXVhQ5pwlcFJnMFGWfBZX+eVfHhAc+5Q1MSRAflUhBo7gCFhc1kJbrlRI
9UyVE/bKyqMuAgDjA49pPlVJpc4kbh0QMINaFpm67VMgPlB4yST2R4KhIa9SLSKI
oBYHfQY/xehY3PMB7UN2
-----END CERTIFICATE-----
