Certificate:
    Data:
        Version: 3 (0x2)
        Serial Number:
            24:05:66:78:75
    Signature Algorithm: sha1WithRSAEncryption
        Issuer: C=US, ST=California, L=Dummy City, O=Dummy Organization, OU=Dummy Org Unit, CN=dummy.com/emailAddress=dummy@dummy.com
        Validity
            Not Before: Oct 25 00:00:00 2014 GMT
            Not After : Nov 27 07:26:44 2015 GMT
        Subject: C=US, ST=California, L=Mountain View, O=Google Inc, CN=*.google.com
        Subject Public Key Info:
            Public Key Algorithm: rsaEncryption
                Public-Key: (1024 bit)
                Modulus:
                    00:b9:c1:bc:f4:c9:8d:6c:f1:cd:c9:67:7d:4a:87:
                    95:f2:f0:0d:d9:7c:a0:fd:3f:28:10:76:30:8b:e7:
                    6a:e5:d4:81:12:a2:c0:ab:7b:5d:26:0d:a4:c6:e2:
                    b7:1a:59:b9:f0:cb:6d:2c:84:33:93:cd:87:d7:68:
                    94:56:62:2d:af:38:4a:69:1f:ad:c9:2c:e1:20:18:
                    bd:18:ba:41:5b:87:10:6f:08:71:d5:62:7c:da:19:
                    7f:b6:3e:a5:d7:c2:73:0f:ec:0b:df:95:6d:da:d5:
                    a5:6f:b5:08:e4:fd:94:e2:db:1d:1d:93:e1:7d:a8:
                    07:3c:70:61:9a:50:ac:42:41
                Exponent: 65537 (0x10001)
        X509v3 extensions:
            X509v3 Subject Alternative Name: 
                DNS:*.google.com, DNS:*.android.com, DNS:*.appengine.google.com, DNS:*.cloud.google.com, DNS:*.google-analytics.com, DNS:*.google.ca, DNS:*.google.cl, DNS:*.google.co.in, DNS:*.google.co.jp, DNS:*.google.co.uk, DNS:*.google.com.ar, DNS:*.google.com.au, DNS:*.google.com.br, DNS:*.google.com.co, DNS:*.google.com.mx, DNS:*.google.com.tr, DNS:*.google.com.vn, DNS:*.google.de, DNS:*.google.es, DNS:*.google.fr, DNS:*.google.hu, DNS:*.google.it, DNS:*.google.nl, DNS:*.google.pl, DNS:*.google.pt, DNS:*.googleadapis.com, DNS:*.googleapis.cn, DNS:*.googlecommerce.com, DNS:*.googlevideo.com, DNS:*.gstatic.cn, DNS:*.gstatic.com, DNS:*.gvt1.com, DNS:*.gvt2.com, DNS:*.metric.gstatic.com, DNS:*.urchin.com, DNS:*.url.google.com, DNS:*.youtube-nocookie.com, DNS:*.youtube.com, DNS:*.youtubeeducation.com, DNS:*.ytimg.com, DNS:android.com, DNS:g.co, DNS:goo.gl, DNS:google-analytics.com, DNS:google.com, DNS:googlecommerce.com, DNS:urchin.com, DNS:youtu.be, DNS:youtube.com, DNS:youtubeeducation.com
    Signature Algorithm: sha1WithRSAEncryption
         17:01:bb:dd:5a:ce:ab:01:89:98:9c:ce:9d:b2:73:16:cc:be:
         39:e5:df:8d:65:df:27:87:d8:08:a2:ca:2e:9b:dd:1a:fd:74:
         5e:6b:4b:60:94:fc:ab:8a:c9:d7:05:13:d0:33:49:3d:64:a2:
         eb:0f:6a:33:9f:45:43:28:88:ab:71:98:10:83:98:c7:4b:02:
         d3:7c:e0:7b:7c:3c:4c:85:1e:44:17:07:aa:4e:6d:90:2c:d7:
         ce:a5:eb:10:ce:02:18:74:cc:38:ea:b4:ea:96:d6:87:69:fa:
         fe:e2:c3:1f:55:61:ab:cb:2b:87:da:0c:e7:d8:a5:24:4c:ed:
         16:77
-----BEGIN CERTIFICATE-----
MIIFsjCCBRugAwIBAgIFJAVmeHUwDQYJKoZIhvcNAQEFBQAwgaExCzAJBgNVBAYT
AlVTMRMwEQYDVQQIEwpDYWxpZm9ybmlhMRMwEQYDVQQHEwpEdW1teSBDaXR5MRsw
GQYDVQQKExJEdW1teSBPcmdhbml6YXRpb24xFzAVBgNVBAsTDkR1bW15IE9yZyBV
bml0MRIwEAYDVQQDEwlkdW1teS5jb20xHjAcBgkqhkiG9w0BCQEWD2R1bW15QGR1
bW15LmNvbTAeFw0xNDEwMjUwMDAwMDBaFw0xNTExMjcwNzI2NDRaMGYxCzAJBgNV
BAYTAlVTMRMwEQYDVQQIEwpDYWxpZm9ybmlhMRYwFAYDVQQHEw1Nb3VudGFpbiBW
aWV3MRMwEQYDVQQKEwpHb29nbGUgSW5jMRUwEwYDVQQDFAwqLmdvb2dsZS5jb20w
gZ8wDQYJKoZIhvcNAQEBBQADgY0AMIGJAoGBALnBvPTJjWzxzclnfUqHlfLwDdl8
oP0/KBB2MIvnauXUgRKiwKt7XSYNpMbitxpZufDLbSyEM5PNh9dolFZiLa84Smkf
rcks4SAYvRi6QVuHEG8IcdVifNoZf7Y+pdfCcw/sC9+VbdrVpW+1COT9lOLbHR2T
4X2oBzxwYZpQrEJBAgMBAAGjggMuMIIDKjCCAyYGA1UdEQSCAx0wggMZggwqLmdv
b2dsZS5jb22CDSouYW5kcm9pZC5jb22CFiouYXBwZW5naW5lLmdvb2dsZS5jb22C
EiouY2xvdWQuZ29vZ2xlLmNvbYIWKi5nb29nbGUtYW5hbHl0aWNzLmNvbYILKi5n
b29nbGUuY2GCCyouZ29vZ2xlLmNsgg4qLmdvb2dsZS5jby5pboIOKi5nb29nbGUu
Y28uanCCDiouZ29vZ2xlLmNvLnVrgg8qLmdvb2dsZS5jb20uYXKCDyouZ29vZ2xl
LmNvbS5hdYIPKi5nb29nbGUuY29tLmJygg8qLmdvb2dsZS5jb20uY2+CDyouZ29v
Z2xlLmNvbS5teIIPKi5nb29nbGUuY29tLnRygg8qLmdvb2dsZS5jb20udm6CCyou
Z29vZ2xlLmRlggsqLmdvb2dsZS5lc4ILKi5nb29nbGUuZnKCCyouZ29vZ2xlLmh1
ggsqLmdvb2dsZS5pdIILKi5nb29nbGUubmyCCyouZ29vZ2xlLnBsggsqLmdvb2ds
ZS5wdIISKi5nb29nbGVhZGFwaXMuY29tgg8qLmdvb2dsZWFwaXMuY26CFCouZ29v
Z2xlY29tbWVyY2UuY29tghEqLmdvb2dsZXZpZGVvLmNvbYIMKi5nc3RhdGljLmNu
gg0qLmdzdGF0aWMuY29tggoqLmd2dDEuY29tggoqLmd2dDIuY29tghQqLm1ldHJp
Yy5nc3RhdGljLmNvbYIMKi51cmNoaW4uY29tghAqLnVybC5nb29nbGUuY29tghYq
LnlvdXR1YmUtbm9jb29raWUuY29tgg0qLnlvdXR1YmUuY29tghYqLnlvdXR1YmVl
ZHVjYXRpb24uY29tggsqLnl0aW1nLmNvbYILYW5kcm9pZC5jb22CBGcuY2+CBmdv
by5nbIIUZ29vZ2xlLWFuYWx5dGljcy5jb22CCmdvb2dsZS5jb22CEmdvb2dsZWNv
bW1lcmNlLmNvbYIKdXJjaGluLmNvbYIIeW91dHUuYmWCC3lvdXR1YmUuY29tghR5
b3V0dWJlZWR1Y2F0aW9uLmNvbTANBgkqhkiG9w0BAQUFAAOBgQAXAbvdWs6rAYmY
nM6dsnMWzL455d+NZd8nh9gIosoum90a/XRea0tglPyrisnXBRPQM0k9ZKLrD2oz
n0VDKIircZgQg5jHSwLTfOB7fDxMhR5EFweqTm2QLNfOpesQzgIYdMw46rTqltaH
afr+4sMfVWGryyuH2gzn2KUkTO0Wdw==
-----END CERTIFICATE-----
