Certificate:
    Data:
        Version: 3 (0x2)
        Serial Number:
            31:30:51:05:28
    Signature Algorithm: sha1WithRSAEncryption
        Issuer: C=US, ST=California, L=Dummy City, O=Dummy Organization, OU=Dummy Org Unit, CN=dummy.com/emailAddress=dummy@dummy.com
        Validity
            Not Before: Oct 25 00:00:00 2014 GMT
            Not After : Nov 27 07:11:41 2015 GMT
        Subject: C=US, ST=Washington, L=Seattle, O=Amazon.com Inc., CN=*.cloudfront.net
        Subject Public Key Info:
            Public Key Algorithm: rsaEncryption
                Public-Key: (1024 bit)
                Modulus:
                    00:e8:57:61:b8:31:76:a5:6b:3d:76:44:4a:07:ab:
                    b1:a2:09:19:80:c0:73:ce:f0:ea:ba:40:a3:d6:b1:
                    04:d9:93:3b:57:07:0b:3d:4f:8f:5e:43:7b:40:77:
                    9e:a3:29:fa:26:20:e1:9d:ca:a9:c5:4f:05:5e:1f:
                    8a:e8:2e:df:fc:f9:82:f7:5a:3e:b5:15:d0:11:4e:
                    86:a1:b9:28:66:e9:40:71:89:ab:cb:7f:bf:b8:a1:
                    db:29:89:24:13:e4:a3:d1:03:80:e8:2b:69:dc:e7:
                    3e:d8:b0:a7:35:0f:ff:4c:39:54:63:20:20:9b:79:
                    4c:d3:11:ea:a4:78:21:27:4b
                Exponent: 65537 (0x10001)
        X509v3 extensions:
            X509v3 Subject Alternative Name: 
                DNS:cloudfront.net, DNS:*.cloudfront.net
    Signature Algorithm: sha1WithRSAEncryption
         85:9c:9d:80:a7:d0:c3:87:5d:f1:ce:10:27:8d:61:a7:9a:0f:
         12:f2:8d:ba:09:30:b2:a9:1b:ad:fd:86:96:d2:8f:70:1c:f9:
         b1:db:5f:91:9d:47:30:d1:88:90:00:ab:8f:5a:18:c1:b4:39:
         bb:ab:50:a4:3e:5b:de:fc:7a:c1:4a:68:d6:a8:53:f6:30:2a:
         10:9a:90:6b:b9:14:e9:40:ba:18:55:83:3f:a9:95:36:66:1b:
         17:64:f2:d5:a3:e2:56:93:56:9b:e1:96:47:6e:29:a3:d8:2b:
         97:20:34:dd:50:c6:fa:0a:0d:89:47:06:75:91:1b:b0:80:17:
         ae:ac
-----BEGIN CERTIFICATE-----
MIICtDCCAh2gAwIBAgIFMTBRBSgwDQYJKoZIhvcNAQEFBQAwgaExCzAJBgNVBAYT
AlVTMRMwEQYDVQQIEwpDYWxpZm9ybmlhMRMwEQYDVQQHEwpEdW1teSBDaXR5MRsw
GQYDVQQKExJEdW1teSBPcmdhbml6YXRpb24xFzAVBgNVBAsTDkR1bW15IE9yZyBV
bml0MRIwEAYDVQQDEwlkdW1teS5jb20xHjAcBgkqhkiG9w0BCQEWD2R1bW15QGR1
bW15LmNvbTAeFw0xNDEwMjUwMDAwMDBaFw0xNTExMjcwNzExNDFaMGkxCzAJBgNV
BAYTAlVTMRMwEQYDVQQIEwpXYXNoaW5ndG9uMRAwDgYDVQQHEwdTZWF0dGxlMRgw
FgYDVQQKEw9BbWF6b24uY29tIEluYy4xGTAXBgNVBAMUECouY2xvdWRmcm9udC5u
ZXQwgZ8wDQYJKoZIhvcNAQEBBQADgY0AMIGJAoGBAOhXYbgxdqVrPXZESgersaIJ
GYDAc87w6rpAo9axBNmTO1cHCz1Pj15De0B3nqMp+iYg4Z3KqcVPBV4fiugu3/z5
gvdaPrUV0BFOhqG5KGbpQHGJq8t/v7ih2ymJJBPko9EDgOgradznPtiwpzUP/0w5
VGMgIJt5TNMR6qR4ISdLAgMBAAGjLzAtMCsGA1UdEQQkMCKCDmNsb3VkZnJvbnQu
bmV0ghAqLmNsb3VkZnJvbnQubmV0MA0GCSqGSIb3DQEBBQUAA4GBAIWcnYCn0MOH
XfHOECeNYaeaDxLyjboJMLKpG639hpbSj3Ac+bHbX5GdRzDRiJAAq49aGMG0Obur
UKQ+W978esFKaNaoU/YwKhCakGu5FOlAuhhVgz+plTZmGxdk8tWj4laTVpvhlkdu
KaPYK5cgNN1QxvoKDYlHBnWRG7CAF66s
-----END CERTIFICATE-----
