Certificate:
    Data:
        Version: 3 (0x2)
        Serial Number:
            37:72:78:86:32
    Signature Algorithm: sha1WithRSAEncryption
        Issuer: C=US, ST=California, L=Dummy City, O=Dummy Organization, OU=Dummy Org Unit, CN=dummy.com/emailAddress=dummy@dummy.com
        Validity
            Not Before: Oct 25 00:00:00 2014 GMT
            Not After : Nov 27 06:07:47 2015 GMT
        Subject: C=US, ST=California, L=Mountain View, O=Google Inc, CN=*.g.doubleclick.net
        Subject Public Key Info:
            Public Key Algorithm: rsaEncryption
                Public-Key: (1024 bit)
                Modulus:
                    00:d2:61:28:1c:57:a5:4e:13:c7:e5:fa:33:59:e7:
                    a5:76:11:cb:a8:9b:ed:6b:ad:36:92:9b:98:33:b1:
                    c5:55:09:6b:f3:71:ce:5a:47:e8:21:16:20:05:c2:
                    ae:cb:bf:d5:f9:cf:63:a2:d8:27:d0:41:b5:f7:bc:
                    9b:b9:3d:9d:5e:b0:2b:12:0a:dd:a5:03:51:3d:40:
                    cf:2d:56:03:f9:53:69:e4:b1:28:ce:d0:4f:f2:38:
                    d1:23:7d:56:ce:c0:09:5f:ae:a1:13:d1:ab:f5:0e:
                    96:b6:a7:fc:c5:60:5a:7e:15:cc:d1:aa:6e:11:53:
                    99:bb:ad:df:5e:2d:1f:d5:03
                Exponent: 65537 (0x10001)
        X509v3 extensions:
            X509v3 Subject Alternative Name: 
                DNS:*.g.doubleclick.net, DNS:*.googleadservices.com, DNS:*.googlesyndication.com, DNS:*.googletagservices.com, DNS:*.invitemedia.com, DNS:g.doubleclick.net, DNS:googleadservices.com, DNS:googlesyndication.com, DNS:googletagservices.com, DNS:media.admob.com
    Signature Algorithm: sha1WithRSAEncryption
         6f:23:0a:14:7b:c1:0e:0a:cb:47:03:04:66:60:04:87:9a:87:
         ba:46:07:47:15:7a:bc:63:db:c7:bd:c3:a3:80:fe:78:ec:e5:
         d6:35:cc:11:45:d6:0b:f2:29:62:4d:d5:d1:fd:be:c4:04:6c:
         a3:93:5d:44:73:2e:9c:57:64:da:6a:06:3e:78:55:7e:63:cf:
         5a:16:b6:a0:36:95:2b:af:5b:fa:fd:97:bb:f6:e8:dc:d8:7f:
         b7:f1:f0:8b:e3:80:af:d4:a5:40:ba:96:d5:c4:aa:25:09:ee:
         5f:31:58:26:6e:97:5c:71:61:22:02:86:9a:ed:e8:2f:85:bd:
         2c:96
-----BEGIN CERTIFICATE-----
MIIDdTCCAt6gAwIBAgIFN3J4hjIwDQYJKoZIhvcNAQEFBQAwgaExCzAJBgNVBAYT
AlVTMRMwEQYDVQQIEwpDYWxpZm9ybmlhMRMwEQYDVQQHEwpEdW1teSBDaXR5MRsw
GQYDVQQKExJEdW1teSBPcmdhbml6YXRpb24xFzAVBgNVBAsTDkR1bW15IE9yZyBV
bml0MRIwEAYDVQQDEwlkdW1teS5jb20xHjAcBgkqhkiG9w0BCQEWD2R1bW15QGR1
bW15LmNvbTAeFw0xNDEwMjUwMDAwMDBaFw0xNTExMjcwNjA3NDdaMG0xCzAJBgNV
BAYTAlVTMRMwEQYDVQQIEwpDYWxpZm9ybmlhMRYwFAYDVQQHEw1Nb3VudGFpbiBW
aWV3MRMwEQYDVQQKEwpHb29nbGUgSW5jMRwwGgYDVQQDFBMqLmcuZG91YmxlY2xp
Y2submV0MIGfMA0GCSqGSIb3DQEBAQUAA4GNADCBiQKBgQDSYSgcV6VOE8fl+jNZ
56V2Ecuom+1rrTaSm5gzscVVCWvzcc5aR+ghFiAFwq7Lv9X5z2Oi2CfQQbX3vJu5
PZ1esCsSCt2lA1E9QM8tVgP5U2nksSjO0E/yONEjfVbOwAlfrqET0av1Dpa2p/zF
YFp+FczRqm4RU5m7rd9eLR/VAwIDAQABo4HrMIHoMIHlBgNVHREEgd0wgdqCEyou
Zy5kb3VibGVjbGljay5uZXSCFiouZ29vZ2xlYWRzZXJ2aWNlcy5jb22CFyouZ29v
Z2xlc3luZGljYXRpb24uY29tghcqLmdvb2dsZXRhZ3NlcnZpY2VzLmNvbYIRKi5p
bnZpdGVtZWRpYS5jb22CEWcuZG91YmxlY2xpY2submV0ghRnb29nbGVhZHNlcnZp
Y2VzLmNvbYIVZ29vZ2xlc3luZGljYXRpb24uY29tghVnb29nbGV0YWdzZXJ2aWNl
cy5jb22CD21lZGlhLmFkbW9iLmNvbTANBgkqhkiG9w0BAQUFAAOBgQBvIwoUe8EO
CstHAwRmYASHmoe6RgdHFXq8Y9vHvcOjgP547OXWNcwRRdYL8iliTdXR/b7EBGyj
k11Ecy6cV2TaagY+eFV+Y89aFragNpUrr1v6/Ze79ujc2H+38fCL44Cv1KVAupbV
xKolCe5fMVgmbpdccWEiAoaa7egvhb0slg==
-----END CERTIFICATE-----
