Certificate:
    Data:
        Version: 3 (0x2)
        Serial Number:
            08:99:18:73:14
    Signature Algorithm: sha1WithRSAEncryption
        Issuer: C=US, ST=California, L=Dummy City, O=Dummy Organization, OU=Dummy Org Unit, CN=dummy.com/emailAddress=dummy@dummy.com
        Validity
            Not Before: Oct 25 00:00:00 2014 GMT
            Not After : Nov 27 05:57:31 2015 GMT
        Subject: C=US, ST=California, L=Mountain View, O=Google Inc, CN=*.google.com
        Subject Public Key Info:
            Public Key Algorithm: rsaEncryption
                Public-Key: (1024 bit)
                Modulus:
                    00:a9:fd:14:4a:7c:9f:e2:fe:86:8f:d7:6b:99:5e:
                    46:73:02:ee:76:c2:4c:38:39:8d:45:b1:b0:d4:98:
                    3a:42:d0:ef:31:82:a8:4a:ae:3d:b0:36:56:55:d1:
                    ee:a8:29:5e:f5:42:cd:a5:c5:c1:88:85:ed:30:0f:
                    21:a0:f6:55:ac:04:50:df:90:af:c3:e8:d9:d4:59:
                    b7:e7:a5:8f:4b:01:c0:c8:7c:9c:bd:d6:14:06:96:
                    5b:13:8e:39:7a:f2:07:0e:25:eb:b6:1c:8c:50:36:
                    02:7e:cf:20:31:d6:1f:b9:21:27:c9:68:c6:aa:7e:
                    2a:0c:a3:95:e2:9b:a8:f8:db
                Exponent: 65537 (0x10001)
        X509v3 extensions:
            X509v3 Subject Alternative Name: 
                DNS:*.google.com, DNS:*.android.com, DNS:*.appengine.google.com, DNS:*.cloud.google.com, DNS:*.google-analytics.com, DNS:*.google.ca, DNS:*.google.cl, DNS:*.google.co.in, DNS:*.google.co.jp, DNS:*.google.co.uk, DNS:*.google.com.ar, DNS:*.google.com.au, DNS:*.google.com.br, DNS:*.google.com.co, DNS:*.google.com.mx, DNS:*.google.com.tr, DNS:*.google.com.vn, DNS:*.google.de, DNS:*.google.es, DNS:*.google.fr, DNS:*.google.hu, DNS:*.google.it, DNS:*.google.nl, DNS:*.google.pl, DNS:*.google.pt, DNS:*.googleadapis.com, DNS:*.googleapis.cn, DNS:*.googlecommerce.com, DNS:*.googlevideo.com, DNS:*.gstatic.cn, DNS:*.gstatic.com, DNS:*.gvt1.com, DNS:*.gvt2.com, DNS:*.metric.gstatic.com, DNS:*.urchin.com, DNS:*.url.google.com, DNS:*.youtube-nocookie.com, DNS:*.youtube.com, DNS:*.youtubeeducation.com, DNS:*.ytimg.com, DNS:android.com, DNS:g.co, DNS:goo.gl, DNS:google-analytics.com, DNS:google.com, DNS:googlecommerce.com, DNS:urchin.com, DNS:youtu.be, DNS:youtube.com, DNS:youtubeeducation.com
    Signature Algorithm: sha1WithRSAEncryption
         8e:18:59:30:46:a5:5a:06:72:91:5f:06:5b:b0:ba:a2:89:4c:
         a0:3a:7c:76:d1:a5:18:6c:af:da:91:61:e9:81:f1:f1:7b:bf:
         4d:7a:8d:57:f8:9b:a2:b0:6b:11:ce:c4:0f:d3:cb:90:12:30:
         64:24:39:3c:14:37:9f:4e:0a:2f:91:8d:ac:19:3a:c3:a5:70:
         af:15:87:6d:92:86:80:96:ff:2a:98:8d:c2:00:a4:4e:12:d6:
         b8:4a:7a:3f:64:67:a6:a1:ca:ac:b8:66:4b:b7:9d:eb:0a:cf:
         8e:fe:33:be:41:f5:67:52:a8:d5:86:78:c7:ca:32:be:40:16:
         05:81
-----BEGIN CERTIFICATE-----
MIIFsjCCBRugAwIBAgIFCJkYcxQwDQYJKoZIhvcNAQEFBQAwgaExCzAJBgNVBAYT
AlVTMRMwEQYDVQQIEwpDYWxpZm9ybmlhMRMwEQYDVQQHEwpEdW1teSBDaXR5MRsw
GQYDVQQKExJEdW1teSBPcmdhbml6YXRpb24xFzAVBgNVBAsTDkR1bW15IE9yZyBV
bml0MRIwEAYDVQQDEwlkdW1teS5jb20xHjAcBgkqhkiG9w0BCQEWD2R1bW15QGR1
bW15LmNvbTAeFw0xNDEwMjUwMDAwMDBaFw0xNTExMjcwNTU3MzFaMGYxCzAJBgNV
BAYTAlVTMRMwEQYDVQQIEwpDYWxpZm9ybmlhMRYwFAYDVQQHEw1Nb3VudGFpbiBW
aWV3MRMwEQYDVQQKEwpHb29nbGUgSW5jMRUwEwYDVQQDFAwqLmdvb2dsZS5jb20w
gZ8wDQYJKoZIhvcNAQEBBQADgY0AMIGJAoGBAKn9FEp8n+L+ho/Xa5leRnMC7nbC
TDg5jUWxsNSYOkLQ7zGCqEquPbA2VlXR7qgpXvVCzaXFwYiF7TAPIaD2VawEUN+Q
r8Po2dRZt+elj0sBwMh8nL3WFAaWWxOOOXryBw4l67YcjFA2An7PIDHWH7khJ8lo
xqp+KgyjleKbqPjbAgMBAAGjggMuMIIDKjCCAyYGA1UdEQSCAx0wggMZggwqLmdv
b2dsZS5jb22CDSouYW5kcm9pZC5jb22CFiouYXBwZW5naW5lLmdvb2dsZS5jb22C
EiouY2xvdWQuZ29vZ2xlLmNvbYIWKi5nb29nbGUtYW5hbHl0aWNzLmNvbYILKi5n
b29nbGUuY2GCCyouZ29vZ2xlLmNsgg4qLmdvb2dsZS5jby5pboIOKi5nb29nbGUu
Y28uanCCDiouZ29vZ2xlLmNvLnVrgg8qLmdvb2dsZS5jb20uYXKCDyouZ29vZ2xl
LmNvbS5hdYIPKi5nb29nbGUuY29tLmJygg8qLmdvb2dsZS5jb20uY2+CDyouZ29v
Z2xlLmNvbS5teIIPKi5nb29nbGUuY29tLnRygg8qLmdvb2dsZS5jb20udm6CCyou
Z29vZ2xlLmRlggsqLmdvb2dsZS5lc4ILKi5nb29nbGUuZnKCCyouZ29vZ2xlLmh1
ggsqLmdvb2dsZS5pdIILKi5nb29nbGUubmyCCyouZ29vZ2xlLnBsggsqLmdvb2ds
ZS5wdIISKi5nb29nbGVhZGFwaXMuY29tgg8qLmdvb2dsZWFwaXMuY26CFCouZ29v
Z2xlY29tbWVyY2UuY29tghEqLmdvb2dsZXZpZGVvLmNvbYIMKi5nc3RhdGljLmNu
gg0qLmdzdGF0aWMuY29tggoqLmd2dDEuY29tggoqLmd2dDIuY29tghQqLm1ldHJp
Yy5nc3RhdGljLmNvbYIMKi51cmNoaW4uY29tghAqLnVybC5nb29nbGUuY29tghYq
LnlvdXR1YmUtbm9jb29raWUuY29tgg0qLnlvdXR1YmUuY29tghYqLnlvdXR1YmVl
ZHVjYXRpb24uY29tggsqLnl0aW1nLmNvbYILYW5kcm9pZC5jb22CBGcuY2+CBmdv
by5nbIIUZ29vZ2xlLWFuYWx5dGljcy5jb22CCmdvb2dsZS5jb22CEmdvb2dsZWNv
bW1lcmNlLmNvbYIKdXJjaGluLmNvbYIIeW91dHUuYmWCC3lvdXR1YmUuY29tghR5
b3V0dWJlZWR1Y2F0aW9uLmNvbTANBgkqhkiG9w0BAQUFAAOBgQCOGFkwRqVaBnKR
XwZbsLqiiUygOnx20aUYbK/akWHpgfHxe79Neo1X+JuisGsRzsQP08uQEjBkJDk8
FDefTgovkY2sGTrDpXCvFYdtkoaAlv8qmI3CAKROEta4Sno/ZGemocqsuGZLt53r
Cs+O/jO+QfVnUqjVhnjHyjK+QBYFgQ==
-----END CERTIFICATE-----
