Certificate:
    Data:
        Version: 3 (0x2)
        Serial Number:
            32:03:42:98:04
    Signature Algorithm: sha1WithRSAEncryption
        Issuer: C=US, ST=California, L=Dummy City, O=Dummy Organization, OU=Dummy Org Unit, CN=dummy.com/emailAddress=dummy@dummy.com
        Validity
            Not Before: Oct 25 00:00:00 2014 GMT
            Not After : Nov 27 05:52:48 2015 GMT
        Subject: C=US, ST=California, L=Mountain View, O=Google Inc, CN=*.googleapis.com
        Subject Public Key Info:
            Public Key Algorithm: rsaEncryption
                Public-Key: (1024 bit)
                Modulus:
                    00:9a:d3:85:50:b3:e6:e2:19:5b:f8:51:44:a5:a2:
                    18:b5:7f:64:84:82:c2:67:ba:bd:5d:3c:e7:a1:e7:
                    3a:6b:04:f1:21:55:9b:5d:d6:44:d0:86:c8:fe:99:
                    4b:9d:69:5f:a9:f9:d0:0e:f5:2e:04:40:a5:e3:ac:
                    57:eb:fa:9c:56:24:ee:2e:8b:c8:52:80:8b:61:26:
                    fc:6f:4d:f5:d5:58:d0:b5:1d:e8:d5:9b:eb:14:ee:
                    a1:0f:fd:d0:22:67:12:48:be:6c:44:60:dc:47:c9:
                    29:c0:0e:7f:a0:0e:8e:61:dd:94:ea:cc:a5:06:87:
                    d7:55:0a:bc:85:dd:82:ac:2b
                Exponent: 65537 (0x10001)
        X509v3 extensions:
            X509v3 Subject Alternative Name: 
                DNS:*.googleapis.com, DNS:*.cloudendpointsapis.com, DNS:cloudendpointsapis.com, DNS:googleapis.com
    Signature Algorithm: sha1WithRSAEncryption
         47:38:3d:db:02:ea:d2:36:11:7f:e6:11:7c:bc:4f:00:5b:28:
         cc:ef:8d:52:72:51:e7:66:5e:fe:a1:40:4d:f7:f1:0a:ea:99:
         cd:a0:66:1a:88:29:11:c2:0b:87:e9:6d:d5:d0:d5:65:37:43:
         6a:bf:3b:d7:05:e2:9f:d2:8f:dd:bf:31:38:c4:39:4d:c3:88:
         37:f5:9f:4a:c8:04:28:59:b9:8a:32:35:03:6f:66:9c:a5:71:
         06:63:67:66:41:bc:f2:c5:db:92:31:2e:9d:b8:96:b5:55:20:
         76:1f:aa:9a:cf:e4:e1:b0:11:93:26:0e:21:4b:5c:08:6c:15:
         35:06
-----BEGIN CERTIFICATE-----
MIIC5zCCAlCgAwIBAgIFMgNCmAQwDQYJKoZIhvcNAQEFBQAwgaExCzAJBgNVBAYT
AlVTMRMwEQYDVQQIEwpDYWxpZm9ybmlhMRMwEQYDVQQHEwpEdW1teSBDaXR5MRsw
GQYDVQQKExJEdW1teSBPcmdhbml6YXRpb24xFzAVBgNVBAsTDkR1bW15IE9yZyBV
bml0MRIwEAYDVQQDEwlkdW1teS5jb20xHjAcBgkqhkiG9w0BCQEWD2R1bW15QGR1
bW15LmNvbTAeFw0xNDEwMjUwMDAwMDBaFw0xNTExMjcwNTUyNDhaMGoxCzAJBgNV
BAYTAlVTMRMwEQYDVQQIEwpDYWxpZm9ybmlhMRYwFAYDVQQHEw1Nb3VudGFpbiBW
aWV3MRMwEQYDVQQKEwpHb29nbGUgSW5jMRkwFwYDVQQDFBAqLmdvb2dsZWFwaXMu
Y29tMIGfMA0GCSqGSIb3DQEBAQUAA4GNADCBiQKBgQCa04VQs+biGVv4UUSlohi1
f2SEgsJnur1dPOeh5zprBPEhVZtd1kTQhsj+mUudaV+p+dAO9S4EQKXjrFfr+pxW
JO4ui8hSgIthJvxvTfXVWNC1HejVm+sU7qEP/dAiZxJIvmxEYNxHySnADn+gDo5h
3ZTqzKUGh9dVCryF3YKsKwIDAQABo2EwXzBdBgNVHREEVjBUghAqLmdvb2dsZWFw
aXMuY29tghgqLmNsb3VkZW5kcG9pbnRzYXBpcy5jb22CFmNsb3VkZW5kcG9pbnRz
YXBpcy5jb22CDmdvb2dsZWFwaXMuY29tMA0GCSqGSIb3DQEBBQUAA4GBAEc4PdsC
6tI2EX/mEXy8TwBbKMzvjVJyUedmXv6hQE338Qrqmc2gZhqIKRHCC4fpbdXQ1WU3
Q2q/O9cF4p/Sj92/MTjEOU3DiDf1n0rIBChZuYoyNQNvZpylcQZjZ2ZBvPLF25Ix
Lp24lrVVIHYfqprP5OGwEZMmDiFLXAhsFTUG
-----END CERTIFICATE-----
