Certificate:
    Data:
        Version: 3 (0x2)
        Serial Number:
            40:91:14:98:72
    Signature Algorithm: sha1WithRSAEncryption
        Issuer: C=US, ST=California, L=Dummy City, O=Dummy Organization, OU=Dummy Org Unit, CN=dummy.com/emailAddress=dummy@dummy.com
        Validity
            Not Before: Oct 25 00:00:00 2014 GMT
            Not After : Nov 27 05:51:47 2015 GMT
        Subject: C=US, ST=California, L=Mountain View, O=Google Inc, CN=*.google.com
        Subject Public Key Info:
            Public Key Algorithm: rsaEncryption
                Public-Key: (1024 bit)
                Modulus:
                    00:eb:74:4c:fd:f0:67:8a:a3:a1:85:bf:db:ad:05:
                    ba:48:d3:70:eb:ab:f5:0a:45:f3:74:5a:cf:31:e8:
                    ee:26:47:dd:f1:ed:08:30:6c:7c:5e:b8:cc:07:01:
                    fd:f7:f5:d5:a9:4f:81:a3:ac:8f:e5:36:a5:49:c6:
                    88:63:e0:fc:4c:20:1c:51:a1:e0:f1:a3:e7:cb:74:
                    18:64:9a:58:e8:84:91:23:b7:a3:fa:4a:ff:2c:08:
                    c8:33:31:dd:79:cf:8a:f7:cd:b2:01:69:9c:53:d8:
                    52:d5:c3:3e:db:f4:05:20:1b:32:82:8c:da:db:8c:
                    89:c7:94:c6:35:f7:fb:37:ab
                Exponent: 65537 (0x10001)
        X509v3 extensions:
            X509v3 Subject Alternative Name: 
                DNS:*.google.com, DNS:*.android.com, DNS:*.appengine.google.com, DNS:*.cloud.google.com, DNS:*.google-analytics.com, DNS:*.google.ca, DNS:*.google.cl, DNS:*.google.co.in, DNS:*.google.co.jp, DNS:*.google.co.uk, DNS:*.google.com.ar, DNS:*.google.com.au, DNS:*.google.com.br, DNS:*.google.com.co, DNS:*.google.com.mx, DNS:*.google.com.tr, DNS:*.google.com.vn, DNS:*.google.de, DNS:*.google.es, DNS:*.google.fr, DNS:*.google.hu, DNS:*.google.it, DNS:*.google.nl, DNS:*.google.pl, DNS:*.google.pt, DNS:*.googleadapis.com, DNS:*.googleapis.cn, DNS:*.googlecommerce.com, DNS:*.googlevideo.com, DNS:*.gstatic.cn, DNS:*.gstatic.com, DNS:*.gvt1.com, DNS:*.gvt2.com, DNS:*.metric.gstatic.com, DNS:*.urchin.com, DNS:*.url.google.com, DNS:*.youtube-nocookie.com, DNS:*.youtube.com, DNS:*.youtubeeducation.com, DNS:*.ytimg.com, DNS:android.com, DNS:g.co, DNS:goo.gl, DNS:google-analytics.com, DNS:google.com, DNS:googlecommerce.com, DNS:urchin.com, DNS:youtu.be, DNS:youtube.com, DNS:youtubeeducation.com
    Signature Algorithm: sha1WithRSAEncryption
         7d:1a:c6:08:7c:80:45:51:3b:4d:0d:71:c2:17:01:6a:6d:1c:
         cf:6d:77:0c:0e:5c:fd:3f:14:e0:67:4e:a8:6d:ee:2b:89:17:
         ac:7a:d3:95:53:74:b0:8c:f7:d5:ca:6e:66:98:b5:83:14:bb:
         5e:44:ae:bf:b5:fe:58:45:5d:bc:bd:05:87:a7:82:cd:d5:1b:
         bb:e6:57:80:9c:5d:3c:80:6a:97:5f:95:ca:91:7d:f0:b0:a2:
         91:f9:47:2e:e3:5d:bd:c5:0e:4f:42:e2:d9:93:54:56:29:08:
         1c:c1:5a:05:8f:ab:4f:75:79:11:89:aa:5f:03:e8:d6:a4:68:
         a3:cc
-----BEGIN CERTIFICATE-----
MIIFsjCCBRugAwIBAgIFQJEUmHIwDQYJKoZIhvcNAQEFBQAwgaExCzAJBgNVBAYT
AlVTMRMwEQYDVQQIEwpDYWxpZm9ybmlhMRMwEQYDVQQHEwpEdW1teSBDaXR5MRsw
GQYDVQQKExJEdW1teSBPcmdhbml6YXRpb24xFzAVBgNVBAsTDkR1bW15IE9yZyBV
bml0MRIwEAYDVQQDEwlkdW1teS5jb20xHjAcBgkqhkiG9w0BCQEWD2R1bW15QGR1
bW15LmNvbTAeFw0xNDEwMjUwMDAwMDBaFw0xNTExMjcwNTUxNDdaMGYxCzAJBgNV
BAYTAlVTMRMwEQYDVQQIEwpDYWxpZm9ybmlhMRYwFAYDVQQHEw1Nb3VudGFpbiBW
aWV3MRMwEQYDVQQKEwpHb29nbGUgSW5jMRUwEwYDVQQDFAwqLmdvb2dsZS5jb20w
gZ8wDQYJKoZIhvcNAQEBBQADgY0AMIGJAoGBAOt0TP3wZ4qjoYW/260FukjTcOur
9QpF83RazzHo7iZH3fHtCDBsfF64zAcB/ff11alPgaOsj+U2pUnGiGPg/EwgHFGh
4PGj58t0GGSaWOiEkSO3o/pK/ywIyDMx3XnPivfNsgFpnFPYUtXDPtv0BSAbMoKM
2tuMiceUxjX3+zerAgMBAAGjggMuMIIDKjCCAyYGA1UdEQSCAx0wggMZggwqLmdv
b2dsZS5jb22CDSouYW5kcm9pZC5jb22CFiouYXBwZW5naW5lLmdvb2dsZS5jb22C
EiouY2xvdWQuZ29vZ2xlLmNvbYIWKi5nb29nbGUtYW5hbHl0aWNzLmNvbYILKi5n
b29nbGUuY2GCCyouZ29vZ2xlLmNsgg4qLmdvb2dsZS5jby5pboIOKi5nb29nbGUu
Y28uanCCDiouZ29vZ2xlLmNvLnVrgg8qLmdvb2dsZS5jb20uYXKCDyouZ29vZ2xl
LmNvbS5hdYIPKi5nb29nbGUuY29tLmJygg8qLmdvb2dsZS5jb20uY2+CDyouZ29v
Z2xlLmNvbS5teIIPKi5nb29nbGUuY29tLnRygg8qLmdvb2dsZS5jb20udm6CCyou
Z29vZ2xlLmRlggsqLmdvb2dsZS5lc4ILKi5nb29nbGUuZnKCCyouZ29vZ2xlLmh1
ggsqLmdvb2dsZS5pdIILKi5nb29nbGUubmyCCyouZ29vZ2xlLnBsggsqLmdvb2ds
ZS5wdIISKi5nb29nbGVhZGFwaXMuY29tgg8qLmdvb2dsZWFwaXMuY26CFCouZ29v
Z2xlY29tbWVyY2UuY29tghEqLmdvb2dsZXZpZGVvLmNvbYIMKi5nc3RhdGljLmNu
gg0qLmdzdGF0aWMuY29tggoqLmd2dDEuY29tggoqLmd2dDIuY29tghQqLm1ldHJp
Yy5nc3RhdGljLmNvbYIMKi51cmNoaW4uY29tghAqLnVybC5nb29nbGUuY29tghYq
LnlvdXR1YmUtbm9jb29raWUuY29tgg0qLnlvdXR1YmUuY29tghYqLnlvdXR1YmVl
ZHVjYXRpb24uY29tggsqLnl0aW1nLmNvbYILYW5kcm9pZC5jb22CBGcuY2+CBmdv
by5nbIIUZ29vZ2xlLWFuYWx5dGljcy5jb22CCmdvb2dsZS5jb22CEmdvb2dsZWNv
bW1lcmNlLmNvbYIKdXJjaGluLmNvbYIIeW91dHUuYmWCC3lvdXR1YmUuY29tghR5
b3V0dWJlZWR1Y2F0aW9uLmNvbTANBgkqhkiG9w0BAQUFAAOBgQB9GsYIfIBFUTtN
DXHCFwFqbRzPbXcMDlz9PxTgZ06obe4riResetOVU3SwjPfVym5mmLWDFLteRK6/
tf5YRV28vQWHp4LN1Ru75leAnF08gGqXX5XKkX3wsKKR+Ucu4129xQ5PQuLZk1RW
KQgcwVoFj6tPdXkRiapfA+jWpGijzA==
-----END CERTIFICATE-----
