Certificate:
    Data:
        Version: 3 (0x2)
        Serial Number:
            28:32:43:02:83
    Signature Algorithm: sha1WithRSAEncryption
        Issuer: C=US, ST=California, L=Dummy City, O=Dummy Organization, OU=Dummy Org Unit, CN=dummy.com/emailAddress=dummy@dummy.com
        Validity
            Not Before: Oct 25 00:00:00 2014 GMT
            Not After : Nov 27 05:51:44 2015 GMT
        Subject: C=US, ST=California, L=Mountain View, O=Google Inc, CN=*.google.com.ph
        Subject Public Key Info:
            Public Key Algorithm: rsaEncryption
                Public-Key: (1024 bit)
                Modulus:
                    00:d9:52:f0:1a:80:92:f7:a7:b3:1a:56:b8:88:a8:
                    30:fa:9f:d7:09:03:0f:c5:0d:46:c4:9c:27:2c:6e:
                    ee:69:40:2d:b6:c1:bb:90:5c:5c:37:a8:a5:69:c9:
                    90:44:3b:f5:bd:cb:9b:3e:69:e2:0f:29:a5:93:66:
                    62:4b:27:4f:7d:e9:11:71:69:96:c2:ab:d8:e2:16:
                    2d:df:36:18:50:24:4b:d5:0b:cb:b2:bf:02:39:dd:
                    db:dd:4b:bb:40:1b:66:2c:5f:95:31:67:b6:f2:88:
                    27:dd:b2:4a:ef:ad:4b:59:43:ce:26:10:63:92:fe:
                    7c:fc:ea:95:17:d2:d4:37:19
                Exponent: 65537 (0x10001)
        X509v3 extensions:
            X509v3 Subject Alternative Name: 
                DNS:*.google.com.ph, DNS:google.com.ph
    Signature Algorithm: sha1WithRSAEncryption
         27:aa:49:36:85:4c:2f:f3:d0:a7:35:6d:67:ec:ba:c6:fa:fa:
         f4:5e:7c:61:61:d2:a1:99:bd:90:28:3b:8d:69:53:39:2c:f9:
         53:68:b4:cc:c2:43:e8:10:32:41:ba:b4:dd:3d:f3:b5:49:63:
         1d:04:d0:2d:bf:6a:9a:5f:94:65:84:eb:2e:08:6c:a3:4a:d3:
         f7:e4:26:50:c2:e0:9f:2c:38:8b:07:81:88:a6:7a:49:c2:ec:
         f0:f3:08:83:e7:05:9a:b8:5e:3f:10:82:ae:e2:06:bc:bb:6a:
         58:4c:fe:c5:ca:a4:12:30:b3:07:d1:24:25:03:28:2b:75:21:
         db:c8
-----BEGIN CERTIFICATE-----
MIICsjCCAhugAwIBAgIFKDJDAoMwDQYJKoZIhvcNAQEFBQAwgaExCzAJBgNVBAYT
AlVTMRMwEQYDVQQIEwpDYWxpZm9ybmlhMRMwEQYDVQQHEwpEdW1teSBDaXR5MRsw
GQYDVQQKExJEdW1teSBPcmdhbml6YXRpb24xFzAVBgNVBAsTDkR1bW15IE9yZyBV
bml0MRIwEAYDVQQDEwlkdW1teS5jb20xHjAcBgkqhkiG9w0BCQEWD2R1bW15QGR1
bW15LmNvbTAeFw0xNDEwMjUwMDAwMDBaFw0xNTExMjcwNTUxNDRaMGkxCzAJBgNV
BAYTAlVTMRMwEQYDVQQIEwpDYWxpZm9ybmlhMRYwFAYDVQQHEw1Nb3VudGFpbiBW
aWV3MRMwEQYDVQQKEwpHb29nbGUgSW5jMRgwFgYDVQQDFA8qLmdvb2dsZS5jb20u
cGgwgZ8wDQYJKoZIhvcNAQEBBQADgY0AMIGJAoGBANlS8BqAkvensxpWuIioMPqf
1wkDD8UNRsScJyxu7mlALbbBu5BcXDeopWnJkEQ79b3Lmz5p4g8ppZNmYksnT33p
EXFplsKr2OIWLd82GFAkS9ULy7K/Ajnd291Lu0AbZixflTFntvKIJ92ySu+tS1lD
ziYQY5L+fPzqlRfS1DcZAgMBAAGjLTArMCkGA1UdEQQiMCCCDyouZ29vZ2xlLmNv
bS5waIINZ29vZ2xlLmNvbS5waDANBgkqhkiG9w0BAQUFAAOBgQAnqkk2hUwv89Cn
NW1n7LrG+vr0XnxhYdKhmb2QKDuNaVM5LPlTaLTMwkPoEDJBurTdPfO1SWMdBNAt
v2qaX5RlhOsuCGyjStP35CZQwuCfLDiLB4GIpnpJwuzw8wiD5wWauF4/EIKu4ga8
u2pYTP7FyqQSMLMH0SQlAygrdSHbyA==
-----END CERTIFICATE-----
