Certificate:
    Data:
        Version: 3 (0x2)
        Serial Number:
            34:97:35:75:52
    Signature Algorithm: sha1WithRSAEncryption
        Issuer: C=US, ST=California, L=Dummy City, O=Dummy Organization, OU=Dummy Org Unit, CN=dummy.com/emailAddress=dummy@dummy.com
        Validity
            Not Before: Oct 25 00:00:00 2014 GMT
            Not After : Nov 27 08:57:56 2015 GMT
        Subject: C=US, ST=California, L=Oakland, O=npm, Inc., CN=npmjs.org
        Subject Public Key Info:
            Public Key Algorithm: rsaEncryption
                Public-Key: (1024 bit)
                Modulus:
                    00:c0:af:9b:fa:21:e8:8b:cf:96:4c:49:83:36:78:
                    6e:82:d0:07:8a:41:c3:7d:50:c8:1d:a4:c1:98:00:
                    56:7f:d7:bd:40:fc:c8:5a:36:fc:e2:8f:1d:30:49:
                    c6:30:ba:b3:c2:8e:79:81:e7:5c:e2:c6:21:8b:a5:
                    8f:83:3d:36:d5:28:36:51:94:8f:eb:f8:61:9b:41:
                    44:08:7d:26:4c:b3:6a:32:d5:17:75:90:da:c9:70:
                    05:5b:d3:67:a3:c1:82:f7:83:dd:51:13:c1:4f:c4:
                    97:ac:1e:0f:07:01:ba:db:11:44:08:aa:25:76:8e:
                    fc:50:a3:10:27:ea:83:6e:c3
                Exponent: 65537 (0x10001)
        X509v3 extensions:
            X509v3 Subject Alternative Name: 
                DNS:npmjs.org, DNS:registry.npmjs.org, DNS:www.npmjs.org
    Signature Algorithm: sha1WithRSAEncryption
         92:83:7d:15:e5:88:e4:e6:7d:d4:68:b2:d9:de:9e:3a:e9:04:
         4d:95:ab:f4:55:a6:92:24:44:bb:fa:0c:d1:76:9e:29:11:9b:
         dc:a9:af:e6:8d:c2:9d:30:95:cd:96:a6:a3:e0:8c:86:f5:70:
         8d:d1:54:22:b6:19:63:f6:54:10:33:b5:af:87:ad:cb:20:28:
         d8:87:56:f3:69:25:8d:c6:dd:3d:68:e6:a1:38:b3:38:0e:4d:
         ec:c5:df:13:11:84:cf:96:b2:c6:a2:e0:1e:6b:f6:c1:dd:29:
         ae:7d:4d:ea:6a:e8:91:db:4b:ca:a8:c5:f6:b6:8f:17:2b:3c:
         04:20
-----BEGIN CERTIFICATE-----
MIICszCCAhygAwIBAgIFNJc1dVIwDQYJKoZIhvcNAQEFBQAwgaExCzAJBgNVBAYT
AlVTMRMwEQYDVQQIEwpDYWxpZm9ybmlhMRMwEQYDVQQHEwpEdW1teSBDaXR5MRsw
GQYDVQQKExJEdW1teSBPcmdhbml6YXRpb24xFzAVBgNVBAsTDkR1bW15IE9yZyBV
bml0MRIwEAYDVQQDEwlkdW1teS5jb20xHjAcBgkqhkiG9w0BCQEWD2R1bW15QGR1
bW15LmNvbTAeFw0xNDEwMjUwMDAwMDBaFw0xNTExMjcwODU3NTZaMFwxCzAJBgNV
BAYTAlVTMRMwEQYDVQQIEwpDYWxpZm9ybmlhMRAwDgYDVQQHEwdPYWtsYW5kMRIw
EAYDVQQKEwlucG0sIEluYy4xEjAQBgNVBAMTCW5wbWpzLm9yZzCBnzANBgkqhkiG
9w0BAQEFAAOBjQAwgYkCgYEAwK+b+iHoi8+WTEmDNnhugtAHikHDfVDIHaTBmABW
f9e9QPzIWjb84o8dMEnGMLqzwo55gedc4sYhi6WPgz021Sg2UZSP6/hhm0FECH0m
TLNqMtUXdZDayXAFW9Nno8GC94PdURPBT8SXrB4PBwG62xFECKoldo78UKMQJ+qD
bsMCAwEAAaM7MDkwNwYDVR0RBDAwLoIJbnBtanMub3JnghJyZWdpc3RyeS5ucG1q
cy5vcmeCDXd3dy5ucG1qcy5vcmcwDQYJKoZIhvcNAQEFBQADgYEAkoN9FeWI5OZ9
1Giy2d6eOukETZWr9FWmkiREu/oM0XaeKRGb3Kmv5o3CnTCVzZamo+CMhvVwjdFU
IrYZY/ZUEDO1r4etyyAo2IdW82kljcbdPWjmoTizOA5N7MXfExGEz5ayxqLgHmv2
wd0prn1N6mrokdtLyqjF9raPFys8BCA=
-----END CERTIFICATE-----
