Certificate:
    Data:
        Version: 3 (0x2)
        Serial Number:
            12:74:83:05:77
    Signature Algorithm: sha1WithRSAEncryption
        Issuer: C=US, ST=California, L=Dummy City, O=Dummy Organization, OU=Dummy Org Unit, CN=dummy.com/emailAddress=dummy@dummy.com
        Validity
            Not Before: Oct 25 00:00:00 2014 GMT
            Not After : Nov 27 06:07:49 2015 GMT
        Subject: C=DE, ST=Berlin, L=Berlin, O=sociomantic labs GmbH, CN=*.sociomantic.com
        Subject Public Key Info:
            Public Key Algorithm: rsaEncryption
                Public-Key: (1024 bit)
                Modulus:
                    00:a5:11:7e:be:79:64:0d:ef:1c:7d:40:f6:b0:3d:
                    49:5d:4b:a5:a9:c0:a9:a5:6c:e9:8a:b6:24:b8:aa:
                    61:be:c1:6c:65:b9:2d:54:69:9f:38:b7:5c:2d:f6:
                    d4:aa:af:47:c7:b9:8c:6a:39:30:bb:0e:22:7f:3f:
                    a8:fc:3f:80:11:24:a3:20:d0:dd:b1:3d:d9:58:79:
                    b9:ab:db:ff:db:fe:03:18:fd:c7:f9:7e:f8:ad:e4:
                    10:36:80:db:e9:70:ca:79:39:38:60:0a:e7:05:d3:
                    5c:3b:bc:9b:30:65:d1:1c:c4:83:8c:99:c4:ed:f1:
                    5e:95:45:df:1d:0b:ce:0d:cd
                Exponent: 65537 (0x10001)
        X509v3 extensions:
            X509v3 Subject Alternative Name: 
                DNS:*.sociomantic.com
    Signature Algorithm: sha1WithRSAEncryption
         4c:2c:28:c6:a6:5d:b2:57:f7:25:2c:6a:7a:52:0c:b9:de:cc:
         15:69:eb:55:f2:27:b0:9d:4e:ed:8b:ca:6b:69:0d:b3:c3:a0:
         a1:16:43:87:64:fd:0f:21:02:49:43:25:ef:3c:d5:f8:a7:30:
         ab:b1:a9:2c:25:6b:68:f1:d9:88:87:ef:50:e0:28:8c:ff:58:
         af:dd:50:2a:2c:ea:44:de:bd:31:f7:29:52:f8:97:2e:bd:a7:
         47:80:ab:68:01:30:e7:3e:53:f4:94:f6:7e:05:95:a8:47:1a:
         35:78:d1:2e:c0:14:cc:c2:84:d7:2d:22:61:f4:a0:b1:6a:2d:
         05:e7
-----BEGIN CERTIFICATE-----
MIICpzCCAhCgAwIBAgIFEnSDBXcwDQYJKoZIhvcNAQEFBQAwgaExCzAJBgNVBAYT
AlVTMRMwEQYDVQQIEwpDYWxpZm9ybmlhMRMwEQYDVQQHEwpEdW1teSBDaXR5MRsw
GQYDVQQKExJEdW1teSBPcmdhbml6YXRpb24xFzAVBgNVBAsTDkR1bW15IE9yZyBV
bml0MRIwEAYDVQQDEwlkdW1teS5jb20xHjAcBgkqhkiG9w0BCQEWD2R1bW15QGR1
bW15LmNvbTAeFw0xNDEwMjUwMDAwMDBaFw0xNTExMjcwNjA3NDlaMGsxCzAJBgNV
BAYTAkRFMQ8wDQYDVQQIEwZCZXJsaW4xDzANBgNVBAcTBkJlcmxpbjEeMBwGA1UE
ChMVc29jaW9tYW50aWMgbGFicyBHbWJIMRowGAYDVQQDFBEqLnNvY2lvbWFudGlj
LmNvbTCBnzANBgkqhkiG9w0BAQEFAAOBjQAwgYkCgYEApRF+vnlkDe8cfUD2sD1J
XUulqcCppWzpirYkuKphvsFsZbktVGmfOLdcLfbUqq9Hx7mMajkwuw4ifz+o/D+A
ESSjINDdsT3ZWHm5q9v/2/4DGP3H+X74reQQNoDb6XDKeTk4YArnBdNcO7ybMGXR
HMSDjJnE7fFelUXfHQvODc0CAwEAAaMgMB4wHAYDVR0RBBUwE4IRKi5zb2Npb21h
bnRpYy5jb20wDQYJKoZIhvcNAQEFBQADgYEATCwoxqZdslf3JSxqelIMud7MFWnr
VfInsJ1O7YvKa2kNs8OgoRZDh2T9DyECSUMl7zzV+Kcwq7GpLCVraPHZiIfvUOAo
jP9Yr91QKizqRN69MfcpUviXLr2nR4CraAEw5z5T9JT2fgWVqEcaNXjRLsAUzMKE
1y0iYfSgsWotBec=
-----END CERTIFICATE-----
